

Microchip MPLAB XC8 Assembler V2.30 build 20200825195618 
                                                                                               Tue Jun 01 00:47:27 2021

Microchip MPLAB XC8 C Compiler v2.30 (Free license) build 20200825195618 Og1 
     1                           	processor	16F877A
     2                           	pagewidth 120
     3                           	opt	flic
     4                           	psect	strings,global,class=STRING,delta=2,noexec
     5                           	psect	stringtext,global,reloc=256,class=STRCODE,delta=2,noexec
     6                           	psect	cinit,global,class=CODE,merge=1,delta=2
     7                           	psect	bssBANK0,global,class=BANK0,space=1,delta=1,noexec
     8                           	psect	bssBANK1,global,class=BANK1,space=1,delta=1,noexec
     9                           	psect	cstackCOMMON,global,class=COMMON,space=1,delta=1,noexec
    10                           	psect	cstackBANK0,global,class=BANK0,space=1,delta=1,noexec
    11                           	psect	maintext,global,class=CODE,split=1,delta=2
    12                           	psect	text1,local,class=CODE,merge=1,delta=2
    13                           	psect	text2,local,class=CODE,merge=1,delta=2
    14                           	psect	text3,local,class=CODE,merge=1,delta=2
    15                           	psect	text4,local,class=CODE,merge=1,delta=2
    16                           	psect	text5,local,class=CODE,merge=1,delta=2
    17                           	psect	text6,local,class=CODE,merge=1,delta=2
    18                           	psect	text7,local,class=CODE,merge=1,delta=2
    19                           	psect	text8,local,class=CODE,merge=1,delta=2
    20                           	psect	text9,local,class=CODE,merge=1,delta=2
    21                           	psect	text10,local,class=CODE,merge=1,delta=2
    22                           	psect	text11,local,class=CODE,merge=1,delta=2
    23                           	psect	text12,local,class=CODE,merge=1,delta=2
    24                           	psect	text13,local,class=CODE,merge=1,delta=2
    25                           	psect	text14,local,class=CODE,merge=1,delta=2
    26                           	psect	text15,local,class=CODE,merge=1,delta=2
    27                           	psect	text16,local,class=CODE,merge=1,delta=2
    28                           	psect	text17,local,class=CODE,merge=1,delta=2,group=1
    29                           	psect	text18,local,class=CODE,merge=1,delta=2,group=1
    30                           	psect	text19,local,class=CODE,merge=1,delta=2
    31                           	psect	text20,local,class=CODE,merge=1,delta=2
    32                           	psect	text21,local,class=CODE,merge=1,delta=2
    33                           	psect	text22,local,class=CODE,merge=1,delta=2
    34                           	psect	text23,local,class=CODE,merge=1,delta=2
    35                           	psect	text24,local,class=CODE,merge=1,delta=2
    36                           	psect	text25,local,class=CODE,merge=1,delta=2
    37                           	psect	text26,local,class=CODE,merge=1,delta=2
    38                           	psect	text27,local,class=CODE,merge=1,delta=2
    39                           	psect	text28,local,class=CODE,merge=1,delta=2
    40                           	psect	text29,local,class=CODE,merge=1,delta=2,group=1
    41                           	psect	text30,local,class=CODE,merge=1,delta=2,group=1
    42                           	psect	text31,local,class=CODE,merge=1,delta=2,group=1
    43                           	psect	text32,local,class=CODE,merge=1,delta=2,group=1
    44                           	psect	text33,local,class=CODE,merge=1,delta=2,group=1
    45                           	psect	text34,local,class=CODE,merge=1,delta=2
    46                           	psect	text35,local,class=CODE,merge=1,delta=2
    47                           	psect	text36,local,class=CODE,merge=1,delta=2
    48                           	psect	text37,local,class=CODE,merge=1,delta=2
    49                           	psect	text38,local,class=CODE,merge=1,delta=2
    50                           	psect	text39,local,class=CODE,merge=1,delta=2
    51                           	psect	text40,local,class=CODE,merge=1,delta=2
    52                           	psect	config,global,abs,ovrld,class=CONFIG,space=4,delta=2,noexec
    53                           	dabs	1,0x7E,2
    54  0000                     
    55                           ; Version 2.20
    56                           ; Generated 12/02/2020 GMT
    57                           ; 
    58                           ; Copyright © 2020, Microchip Technology Inc. and its subsidiaries ("Microchip")
    59                           ; All rights reserved.
    60                           ; 
    61                           ; This software is developed by Microchip Technology Inc. and its subsidiaries ("Microch
      +                          ip").
    62                           ; 
    63                           ; Redistribution and use in source and binary forms, with or without modification, are
    64                           ; permitted provided that the following conditions are met:
    65                           ; 
    66                           ;     1. Redistributions of source code must retain the above copyright notice, this lis
      +                          t of
    67                           ;        conditions and the following disclaimer.
    68                           ; 
    69                           ;     2. Redistributions in binary form must reproduce the above copyright notice, this 
      +                          list
    70                           ;        of conditions and the following disclaimer in the documentation and/or other
    71                           ;        materials provided with the distribution.
    72                           ; 
    73                           ;     3. Microchip's name may not be used to endorse or promote products derived from th
      +                          is
    74                           ;        software without specific prior written permission.
    75                           ; 
    76                           ; THIS SOFTWARE IS PROVIDED BY MICROCHIP "AS IS" AND ANY EXPRESS OR IMPLIED WARRANTIES,
    77                           ; INCLUDING, BUT NOT LIMITED TO, THE IMPLIED WARRANTIES OF MERCHANTABILITY AND FITNESS F
      +                          OR
    78                           ; PURPOSE ARE DISCLAIMED.  IN NO EVENT SHALL MICROCHIP BE LIABLE FOR ANY DIRECT, INDIREC
      +                          T,
    79                           ; INCIDENTAL, SPECIAL, EXEMPLARY, OR CONSEQUENTIAL DAMAGES (INCLUDING BUT NOT LIMITED TO
    80                           ; PROCUREMENT OF SUBSTITUTE GOODS OR SERVICES; LOSS OF USE, DATA OR PROFITS; OR BUSINESS
    81                           ; INTERRUPTION) HOWSOEVER CAUSED AND ON ANY THEORY OF LIABILITY, WHETHER IN CONTRACT, ST
      +                          RICT
    82                           ; LIABILITY, OR TORT (INCLUDING NEGLIGENCE OR OTHERWISE) ARISING IN ANY WAY OUT OF THE U
      +                          SE OF
    83                           ; THIS SOFTWARE, EVEN IF ADVISED OF THE POSSIBILITY OF SUCH DAMAGE.
    84                           ; 
    85                           ; 
    86                           ; Code-generator required, PIC16F877A Definitions
    87                           ; 
    88                           ; SFR Addresses
    89  0000                     	;# 
    90  0001                     	;# 
    91  0002                     	;# 
    92  0003                     	;# 
    93  0004                     	;# 
    94  0005                     	;# 
    95  0006                     	;# 
    96  0007                     	;# 
    97  0008                     	;# 
    98  0009                     	;# 
    99  000A                     	;# 
   100  000B                     	;# 
   101  000C                     	;# 
   102  000D                     	;# 
   103  000E                     	;# 
   104  000E                     	;# 
   105  000F                     	;# 
   106  0010                     	;# 
   107  0011                     	;# 
   108  0012                     	;# 
   109  0013                     	;# 
   110  0014                     	;# 
   111  0015                     	;# 
   112  0015                     	;# 
   113  0016                     	;# 
   114  0017                     	;# 
   115  0018                     	;# 
   116  0019                     	;# 
   117  001A                     	;# 
   118  001B                     	;# 
   119  001B                     	;# 
   120  001C                     	;# 
   121  001D                     	;# 
   122  001E                     	;# 
   123  001F                     	;# 
   124  0081                     	;# 
   125  0085                     	;# 
   126  0086                     	;# 
   127  0087                     	;# 
   128  0088                     	;# 
   129  0089                     	;# 
   130  008C                     	;# 
   131  008D                     	;# 
   132  008E                     	;# 
   133  0091                     	;# 
   134  0092                     	;# 
   135  0093                     	;# 
   136  0094                     	;# 
   137  0098                     	;# 
   138  0099                     	;# 
   139  009C                     	;# 
   140  009D                     	;# 
   141  009E                     	;# 
   142  009F                     	;# 
   143  010C                     	;# 
   144  010D                     	;# 
   145  010E                     	;# 
   146  010F                     	;# 
   147  018C                     	;# 
   148  018D                     	;# 
   149  0000                     	;# 
   150  0001                     	;# 
   151  0002                     	;# 
   152  0003                     	;# 
   153  0004                     	;# 
   154  0005                     	;# 
   155  0006                     	;# 
   156  0007                     	;# 
   157  0008                     	;# 
   158  0009                     	;# 
   159  000A                     	;# 
   160  000B                     	;# 
   161  000C                     	;# 
   162  000D                     	;# 
   163  000E                     	;# 
   164  000E                     	;# 
   165  000F                     	;# 
   166  0010                     	;# 
   167  0011                     	;# 
   168  0012                     	;# 
   169  0013                     	;# 
   170  0014                     	;# 
   171  0015                     	;# 
   172  0015                     	;# 
   173  0016                     	;# 
   174  0017                     	;# 
   175  0018                     	;# 
   176  0019                     	;# 
   177  001A                     	;# 
   178  001B                     	;# 
   179  001B                     	;# 
   180  001C                     	;# 
   181  001D                     	;# 
   182  001E                     	;# 
   183  001F                     	;# 
   184  0081                     	;# 
   185  0085                     	;# 
   186  0086                     	;# 
   187  0087                     	;# 
   188  0088                     	;# 
   189  0089                     	;# 
   190  008C                     	;# 
   191  008D                     	;# 
   192  008E                     	;# 
   193  0091                     	;# 
   194  0092                     	;# 
   195  0093                     	;# 
   196  0094                     	;# 
   197  0098                     	;# 
   198  0099                     	;# 
   199  009C                     	;# 
   200  009D                     	;# 
   201  009E                     	;# 
   202  009F                     	;# 
   203  010C                     	;# 
   204  010D                     	;# 
   205  010E                     	;# 
   206  010F                     	;# 
   207  018C                     	;# 
   208  018D                     	;# 
   209  0010                     _T1CON	set	16
   210  001A                     _RCREG	set	26
   211  0019                     _TXREG	set	25
   212  000E                     _TMR1L	set	14
   213  000F                     _TMR1H	set	15
   214  0041                     _RD1	set	65
   215  0040                     _RD0	set	64
   216  0047                     _RD7	set	71
   217  0046                     _RD6	set	70
   218  0045                     _RD5	set	69
   219  0044                     _RD4	set	68
   220  0065                     _RCIF	set	101
   221  00C1                     _OERR	set	193
   222  0064                     _TXIF	set	100
   223  005E                     _PEIE	set	94
   224  005F                     _GIE	set	95
   225  00C4                     _CREN	set	196
   226  00C6                     _RX9	set	198
   227  00C7                     _SPEN	set	199
   228  0033                     _RB3	set	51
   229  0032                     _RB2	set	50
   230  0034                     _RB4	set	52
   231  0036                     _RB6	set	54
   232  0035                     _RB5	set	53
   233  0037                     _RB7	set	55
   234  0080                     _TMR1ON	set	128
   235  003B                     _RC3	set	59
   236  003A                     _RC2	set	58
   237  0031                     _RB1	set	49
   238  0030                     _RB0	set	48
   239  0088                     _TRISD	set	136
   240  0099                     _SPBRG	set	153
   241  0437                     _TRISB7	set	1079
   242  0431                     _TRISB1	set	1073
   243  043B                     _TRISC3	set	1083
   244  043A                     _TRISC2	set	1082
   245  04C1                     _TRMT	set	1217
   246  0464                     _TXIE	set	1124
   247  0465                     _RCIE	set	1125
   248  04C5                     _TXEN	set	1221
   249  04C6                     _TX9	set	1222
   250  04C4                     _SYNC	set	1220
   251  04C2                     _BRGH	set	1218
   252  043F                     _TRISC7	set	1087
   253  043E                     _TRISC6	set	1086
   254  0433                     _TRISB3	set	1075
   255  0432                     _TRISB2	set	1074
   256  0436                     _TRISB6	set	1078
   257  0435                     _TRISB5	set	1077
   258  0434                     _TRISB4	set	1076
   259  0430                     _TRISB0	set	1072
   260                           
   261                           	psect	strings
   262  1000                     __pstrings:
   263  1000                     stringtab:
   264  1000                     __stringtab:
   265                           
   266                           ;	String table - string pointers are 2 bytes each
   267  1000  1BFF               	btfsc	btemp+1,7
   268  1001  280A               	ljmp	stringcode
   269  1002  1383               	bcf	3,7
   270  1003  187F               	btfsc	btemp+1,0
   271  1004  1783               	bsf	3,7
   272  1005  0800               	movf	0,w
   273  1006  0A84               	incf	4,f
   274  1007  1903               	skipnz
   275  1008  0AFF               	incf	btemp+1,f
   276  1009  0008               	return
   277  100A                     stringcode:
   278  100A  087F               	movf	btemp+1,w
   279  100B  397F               	andlw	127
   280  100C  008A               	movwf	10
   281  100D  0804               	movf	4,w
   282  100E  0A84               	incf	4,f
   283  100F  1903               	skipnz
   284  1010  0AFF               	incf	btemp+1,f
   285  1011  0082               	movwf	2
   286  1012                     __stringbase:
   287  1012                     __end_of__stringtab:
   288                           
   289                           	psect	stringtext
   290  0800                     __pstringtext:
   291  0800                     STR_4:
   292  0800  344E               	retlw	78	;'N'
   293  0801  3468               	retlw	104	;'h'
   294  0802  3461               	retlw	97	;'a'
   295  0803  346E               	retlw	110	;'n'
   296  0804  3420               	retlw	32	;' '
   297  0805  3470               	retlw	112	;'p'
   298  0806  3468               	retlw	104	;'h'
   299  0807  3469               	retlw	105	;'i'
   300  0808  346D               	retlw	109	;'m'
   301  0809  3420               	retlw	32	;' '
   302  080A  3464               	retlw	100	;'d'
   303  080B  3465               	retlw	101	;'e'
   304  080C  3420               	retlw	32	;' '
   305  080D  3463               	retlw	99	;'c'
   306  080E  3468               	retlw	104	;'h'
   307  080F  346F               	retlw	111	;'o'
   308  0810  346E               	retlw	110	;'n'
   309  0811  3420               	retlw	32	;' '
   310  0812  3463               	retlw	99	;'c'
   311  0813  3461               	retlw	97	;'a'
   312  0814  3463               	retlw	99	;'c'
   313  0815  3420               	retlw	32	;' '
   314  0816  3463               	retlw	99	;'c'
   315  0817  3468               	retlw	104	;'h'
   316  0818  3475               	retlw	117	;'u'
   317  0819  3463               	retlw	99	;'c'
   318  081A  3420               	retlw	32	;' '
   319  081B  346E               	retlw	110	;'n'
   320  081C  3461               	retlw	97	;'a'
   321  081D  346E               	retlw	110	;'n'
   322  081E  3467               	retlw	103	;'g'
   323  081F  3420               	retlw	32	;' '
   324  0820  3473               	retlw	115	;'s'
   325  0821  3461               	retlw	97	;'a'
   326  0822  3475               	retlw	117	;'u'
   327  0823  3420               	retlw	32	;' '
   328  0824  3464               	retlw	100	;'d'
   329  0825  3461               	retlw	97	;'a'
   330  0826  3479               	retlw	121	;'y'
   331  0827  343A               	retlw	58	;':'
   332  0828  3420               	retlw	32	;' '
   333  0829  3400               	retlw	0
   334  082A                     STR_25:
   335  082A  3457               	retlw	87	;'W'
   336  082B  3441               	retlw	65	;'A'
   337  082C  3452               	retlw	82	;'R'
   338  082D  344E               	retlw	78	;'N'
   339  082E  3449               	retlw	73	;'I'
   340  082F  344E               	retlw	78	;'N'
   341  0830  3447               	retlw	71	;'G'
   342  0831  3421               	retlw	33	;'!'
   343  0832  3420               	retlw	32	;' '
   344  0833  346E               	retlw	110	;'n'
   345  0834  3468               	retlw	104	;'h'
   346  0835  3469               	retlw	105	;'i'
   347  0836  3465               	retlw	101	;'e'
   348  0837  3474               	retlw	116	;'t'
   349  0838  3420               	retlw	32	;' '
   350  0839  3464               	retlw	100	;'d'
   351  083A  346F               	retlw	111	;'o'
   352  083B  3420               	retlw	32	;' '
   353  083C  3474               	retlw	116	;'t'
   354  083D  3472               	retlw	114	;'r'
   355  083E  346F               	retlw	111	;'o'
   356  083F  346E               	retlw	110	;'n'
   357  0840  3467               	retlw	103	;'g'
   358  0841  3420               	retlw	32	;' '
   359  0842  3463               	retlw	99	;'c'
   360  0843  3468               	retlw	104	;'h'
   361  0844  3475               	retlw	117	;'u'
   362  0845  346F               	retlw	111	;'o'
   363  0846  346E               	retlw	110	;'n'
   364  0847  3467               	retlw	103	;'g'
   365  0848  3420               	retlw	32	;' '
   366  0849  3471               	retlw	113	;'q'
   367  084A  3475               	retlw	117	;'u'
   368  084B  3461               	retlw	97	;'a'
   369  084C  3420               	retlw	32	;' '
   370  084D  3454               	retlw	84	;'T'
   371  084E  3448               	retlw	72	;'H'
   372  084F  3441               	retlw	65	;'A'
   373  0850  3450               	retlw	80	;'P'
   374  0851  3421               	retlw	33	;'!'
   375  0852  3400               	retlw	0
   376  0853                     STR_24:
   377  0853  3457               	retlw	87	;'W'
   378  0854  3441               	retlw	65	;'A'
   379  0855  3452               	retlw	82	;'R'
   380  0856  344E               	retlw	78	;'N'
   381  0857  3449               	retlw	73	;'I'
   382  0858  344E               	retlw	78	;'N'
   383  0859  3447               	retlw	71	;'G'
   384  085A  3421               	retlw	33	;'!'
   385  085B  3420               	retlw	32	;' '
   386  085C  346E               	retlw	110	;'n'
   387  085D  3468               	retlw	104	;'h'
   388  085E  3469               	retlw	105	;'i'
   389  085F  3465               	retlw	101	;'e'
   390  0860  3474               	retlw	116	;'t'
   391  0861  3420               	retlw	32	;' '
   392  0862  3464               	retlw	100	;'d'
   393  0863  346F               	retlw	111	;'o'
   394  0864  3420               	retlw	32	;' '
   395  0865  3474               	retlw	116	;'t'
   396  0866  3472               	retlw	114	;'r'
   397  0867  346F               	retlw	111	;'o'
   398  0868  346E               	retlw	110	;'n'
   399  0869  3467               	retlw	103	;'g'
   400  086A  3420               	retlw	32	;' '
   401  086B  3463               	retlw	99	;'c'
   402  086C  3468               	retlw	104	;'h'
   403  086D  3475               	retlw	117	;'u'
   404  086E  346F               	retlw	111	;'o'
   405  086F  346E               	retlw	110	;'n'
   406  0870  3467               	retlw	103	;'g'
   407  0871  3420               	retlw	32	;' '
   408  0872  3471               	retlw	113	;'q'
   409  0873  3475               	retlw	117	;'u'
   410  0874  3461               	retlw	97	;'a'
   411  0875  3420               	retlw	32	;' '
   412  0876  3443               	retlw	67	;'C'
   413  0877  3441               	retlw	65	;'A'
   414  0878  344F               	retlw	79	;'O'
   415  0879  3421               	retlw	33	;'!'
   416  087A  3400               	retlw	0
   417  087B                     STR_27:
   418  087B  3457               	retlw	87	;'W'
   419  087C  3441               	retlw	65	;'A'
   420  087D  3452               	retlw	82	;'R'
   421  087E  344E               	retlw	78	;'N'
   422  087F  3449               	retlw	73	;'I'
   423  0880  344E               	retlw	78	;'N'
   424  0881  3447               	retlw	71	;'G'
   425  0882  3421               	retlw	33	;'!'
   426  0883  3420               	retlw	32	;' '
   427  0884  3464               	retlw	100	;'d'
   428  0885  346F               	retlw	111	;'o'
   429  0886  3420               	retlw	32	;' '
   430  0887  3461               	retlw	97	;'a'
   431  0888  346D               	retlw	109	;'m'
   432  0889  3420               	retlw	32	;' '
   433  088A  3474               	retlw	116	;'t'
   434  088B  3472               	retlw	114	;'r'
   435  088C  346F               	retlw	111	;'o'
   436  088D  346E               	retlw	110	;'n'
   437  088E  3467               	retlw	103	;'g'
   438  088F  3420               	retlw	32	;' '
   439  0890  3463               	retlw	99	;'c'
   440  0891  3468               	retlw	104	;'h'
   441  0892  3475               	retlw	117	;'u'
   442  0893  346F               	retlw	111	;'o'
   443  0894  346E               	retlw	110	;'n'
   444  0895  3467               	retlw	103	;'g'
   445  0896  3420               	retlw	32	;' '
   446  0897  3471               	retlw	113	;'q'
   447  0898  3475               	retlw	117	;'u'
   448  0899  3461               	retlw	97	;'a'
   449  089A  3420               	retlw	32	;' '
   450  089B  3454               	retlw	84	;'T'
   451  089C  3448               	retlw	72	;'H'
   452  089D  3441               	retlw	65	;'A'
   453  089E  3450               	retlw	80	;'P'
   454  089F  3421               	retlw	33	;'!'
   455  08A0  3400               	retlw	0
   456  08A1                     STR_5:
   457  08A1  3420               	retlw	32	;' '
   458  08A2  3420               	retlw	32	;' '
   459  08A3  3431               	retlw	49	;'1'
   460  08A4  343A               	retlw	58	;':'
   461  08A5  3420               	retlw	32	;' '
   462  08A6  3448               	retlw	72	;'H'
   463  08A7  3469               	retlw	105	;'i'
   464  08A8  3465               	retlw	101	;'e'
   465  08A9  346E               	retlw	110	;'n'
   466  08AA  3420               	retlw	32	;' '
   467  08AB  3474               	retlw	116	;'t'
   468  08AC  3468               	retlw	104	;'h'
   469  08AD  3469               	retlw	105	;'i'
   470  08AE  3420               	retlw	32	;' '
   471  08AF  3474               	retlw	116	;'t'
   472  08B0  3472               	retlw	114	;'r'
   473  08B1  3461               	retlw	97	;'a'
   474  08B2  346E               	retlw	110	;'n'
   475  08B3  3467               	retlw	103	;'g'
   476  08B4  3420               	retlw	32	;' '
   477  08B5  3474               	retlw	116	;'t'
   478  08B6  3468               	retlw	104	;'h'
   479  08B7  3461               	retlw	97	;'a'
   480  08B8  3469               	retlw	105	;'i'
   481  08B9  3420               	retlw	32	;' '
   482  08BA  3474               	retlw	116	;'t'
   483  08BB  3472               	retlw	114	;'r'
   484  08BC  346F               	retlw	111	;'o'
   485  08BD  346E               	retlw	110	;'n'
   486  08BE  3467               	retlw	103	;'g'
   487  08BF  3420               	retlw	32	;' '
   488  08C0  3463               	retlw	99	;'c'
   489  08C1  3468               	retlw	104	;'h'
   490  08C2  3475               	retlw	117	;'u'
   491  08C3  346F               	retlw	111	;'o'
   492  08C4  346E               	retlw	110	;'n'
   493  08C5  3467               	retlw	103	;'g'
   494  08C6  3400               	retlw	0
   495  08C7                     STR_26:
   496  08C7  3457               	retlw	87	;'W'
   497  08C8  3441               	retlw	65	;'A'
   498  08C9  3452               	retlw	82	;'R'
   499  08CA  344E               	retlw	78	;'N'
   500  08CB  3449               	retlw	73	;'I'
   501  08CC  344E               	retlw	78	;'N'
   502  08CD  3447               	retlw	71	;'G'
   503  08CE  3421               	retlw	33	;'!'
   504  08CF  3420               	retlw	32	;' '
   505  08D0  3464               	retlw	100	;'d'
   506  08D1  346F               	retlw	111	;'o'
   507  08D2  3420               	retlw	32	;' '
   508  08D3  3461               	retlw	97	;'a'
   509  08D4  346D               	retlw	109	;'m'
   510  08D5  3420               	retlw	32	;' '
   511  08D6  3474               	retlw	116	;'t'
   512  08D7  3472               	retlw	114	;'r'
   513  08D8  346F               	retlw	111	;'o'
   514  08D9  346E               	retlw	110	;'n'
   515  08DA  3467               	retlw	103	;'g'
   516  08DB  3420               	retlw	32	;' '
   517  08DC  3463               	retlw	99	;'c'
   518  08DD  3468               	retlw	104	;'h'
   519  08DE  3475               	retlw	117	;'u'
   520  08DF  346F               	retlw	111	;'o'
   521  08E0  346E               	retlw	110	;'n'
   522  08E1  3467               	retlw	103	;'g'
   523  08E2  3420               	retlw	32	;' '
   524  08E3  3471               	retlw	113	;'q'
   525  08E4  3475               	retlw	117	;'u'
   526  08E5  3461               	retlw	97	;'a'
   527  08E6  3420               	retlw	32	;' '
   528  08E7  3443               	retlw	67	;'C'
   529  08E8  3441               	retlw	65	;'A'
   530  08E9  344F               	retlw	79	;'O'
   531  08EA  3421               	retlw	33	;'!'
   532  08EB  3400               	retlw	0
   533  08EC                     STR_9:
   534  08EC  344E               	retlw	78	;'N'
   535  08ED  3468               	retlw	104	;'h'
   536  08EE  3469               	retlw	105	;'i'
   537  08EF  3465               	retlw	101	;'e'
   538  08F0  3474               	retlw	116	;'t'
   539  08F1  3420               	retlw	32	;' '
   540  08F2  3464               	retlw	100	;'d'
   541  08F3  346F               	retlw	111	;'o'
   542  08F4  3420               	retlw	32	;' '
   543  08F5  3468               	retlw	104	;'h'
   544  08F6  3469               	retlw	105	;'i'
   545  08F7  3465               	retlw	101	;'e'
   546  08F8  346E               	retlw	110	;'n'
   547  08F9  3420               	retlw	32	;' '
   548  08FA  3474               	retlw	116	;'t'
   549  08FB  3461               	retlw	97	;'a'
   550  08FC  3469               	retlw	105	;'i'
   551  08FD  3420               	retlw	32	;' '
   552  08FE  3474               	retlw	116	;'t'
   553  08FF  3472               	retlw	114	;'r'
   554  0900  346F               	retlw	111	;'o'
   555  0901  346E               	retlw	110	;'n'
   556  0902  3467               	retlw	103	;'g'
   557  0903  3420               	retlw	32	;' '
   558  0904  3463               	retlw	99	;'c'
   559  0905  3468               	retlw	104	;'h'
   560  0906  3475               	retlw	117	;'u'
   561  0907  346F               	retlw	111	;'o'
   562  0908  346E               	retlw	110	;'n'
   563  0909  3467               	retlw	103	;'g'
   564  090A  343A               	retlw	58	;':'
   565  090B  3420               	retlw	32	;' '
   566  090C  3400               	retlw	0
   567  090D                     STR_11:
   568  090D  3444               	retlw	68	;'D'
   569  090E  346F               	retlw	111	;'o'
   570  090F  3420               	retlw	32	;' '
   571  0910  3461               	retlw	97	;'a'
   572  0911  346D               	retlw	109	;'m'
   573  0912  3420               	retlw	32	;' '
   574  0913  3468               	retlw	104	;'h'
   575  0914  3469               	retlw	105	;'i'
   576  0915  3465               	retlw	101	;'e'
   577  0916  346E               	retlw	110	;'n'
   578  0917  3420               	retlw	32	;' '
   579  0918  3474               	retlw	116	;'t'
   580  0919  3461               	retlw	97	;'a'
   581  091A  3469               	retlw	105	;'i'
   582  091B  3420               	retlw	32	;' '
   583  091C  3474               	retlw	116	;'t'
   584  091D  3472               	retlw	114	;'r'
   585  091E  346F               	retlw	111	;'o'
   586  091F  346E               	retlw	110	;'n'
   587  0920  3467               	retlw	103	;'g'
   588  0921  3420               	retlw	32	;' '
   589  0922  3463               	retlw	99	;'c'
   590  0923  3468               	retlw	104	;'h'
   591  0924  3475               	retlw	117	;'u'
   592  0925  346F               	retlw	111	;'o'
   593  0926  346E               	retlw	110	;'n'
   594  0927  3467               	retlw	103	;'g'
   595  0928  343A               	retlw	58	;':'
   596  0929  3420               	retlw	32	;' '
   597  092A  3400               	retlw	0
   598  092B                     STR_3:
   599  092B  3442               	retlw	66	;'B'
   600  092C  346C               	retlw	108	;'l'
   601  092D  3475               	retlw	117	;'u'
   602  092E  3465               	retlw	101	;'e'
   603  092F  3474               	retlw	116	;'t'
   604  0930  346F               	retlw	111	;'o'
   605  0931  346F               	retlw	111	;'o'
   606  0932  3474               	retlw	116	;'t'
   607  0933  3468               	retlw	104	;'h'
   608  0934  3420               	retlw	32	;' '
   609  0935  3464               	retlw	100	;'d'
   610  0936  3461               	retlw	97	;'a'
   611  0937  3420               	retlw	32	;' '
   612  0938  3464               	retlw	100	;'d'
   613  0939  3475               	retlw	117	;'u'
   614  093A  346F               	retlw	111	;'o'
   615  093B  3463               	retlw	99	;'c'
   616  093C  3420               	retlw	32	;' '
   617  093D  346B               	retlw	107	;'k'
   618  093E  3465               	retlw	101	;'e'
   619  093F  3474               	retlw	116	;'t'
   620  0940  3420               	retlw	32	;' '
   621  0941  346E               	retlw	110	;'n'
   622  0942  346F               	retlw	111	;'o'
   623  0943  3469               	retlw	105	;'i'
   624  0944  3400               	retlw	0
   625  0945                     STR_7:
   626  0945  3420               	retlw	32	;' '
   627  0946  3420               	retlw	32	;' '
   628  0947  3433               	retlw	51	;'3'
   629  0948  343A               	retlw	58	;':'
   630  0949  3420               	retlw	32	;' '
   631  094A  3442               	retlw	66	;'B'
   632  094B  3461               	retlw	97	;'a'
   633  094C  3474               	retlw	116	;'t'
   634  094D  3420               	retlw	32	;' '
   635  094E  3471               	retlw	113	;'q'
   636  094F  3475               	retlw	117	;'u'
   637  0950  3461               	retlw	97	;'a'
   638  0951  3474               	retlw	116	;'t'
   639  0952  3420               	retlw	32	;' '
   640  0953  3467               	retlw	103	;'g'
   641  0954  3469               	retlw	105	;'i'
   642  0955  346F               	retlw	111	;'o'
   643  0956  3400               	retlw	0
   644  0957                     STR_8:
   645  0957  3420               	retlw	32	;' '
   646  0958  3420               	retlw	32	;' '
   647  0959  3434               	retlw	52	;'4'
   648  095A  343A               	retlw	58	;':'
   649  095B  3420               	retlw	32	;' '
   650  095C  3454               	retlw	84	;'T'
   651  095D  3461               	retlw	97	;'a'
   652  095E  3474               	retlw	116	;'t'
   653  095F  3420               	retlw	32	;' '
   654  0960  3471               	retlw	113	;'q'
   655  0961  3475               	retlw	117	;'u'
   656  0962  3461               	retlw	97	;'a'
   657  0963  3474               	retlw	116	;'t'
   658  0964  3420               	retlw	32	;' '
   659  0965  3467               	retlw	103	;'g'
   660  0966  3469               	retlw	105	;'i'
   661  0967  346F               	retlw	111	;'o'
   662  0968  3400               	retlw	0
   663  0969                     STR_13:
   664  0969  3451               	retlw	81	;'Q'
   665  096A  3475               	retlw	117	;'u'
   666  096B  3461               	retlw	97	;'a'
   667  096C  3474               	retlw	116	;'t'
   668  096D  3420               	retlw	32	;' '
   669  096E  3454               	retlw	84	;'T'
   670  096F  3468               	retlw	104	;'h'
   671  0970  346F               	retlw	111	;'o'
   672  0971  346E               	retlw	110	;'n'
   673  0972  3467               	retlw	103	;'g'
   674  0973  3420               	retlw	32	;' '
   675  0974  3447               	retlw	71	;'G'
   676  0975  3469               	retlw	105	;'i'
   677  0976  346F               	retlw	111	;'o'
   678  0977  343A               	retlw	58	;':'
   679  0978  3420               	retlw	32	;' '
   680  0979  3400               	retlw	0
   681  097A                     STR_19:
   682  097A  344C               	retlw	76	;'L'
   683  097B  3475               	retlw	117	;'u'
   684  097C  346F               	retlw	111	;'o'
   685  097D  346E               	retlw	110	;'n'
   686  097E  3467               	retlw	103	;'g'
   687  097F  3420               	retlw	32	;' '
   688  0980  3474               	retlw	116	;'t'
   689  0981  3468               	retlw	104	;'h'
   690  0982  3475               	retlw	117	;'u'
   691  0983  3463               	retlw	99	;'c'
   692  0984  3420               	retlw	32	;' '
   693  0985  3461               	retlw	97	;'a'
   694  0986  346E               	retlw	110	;'n'
   695  0987  343A               	retlw	58	;':'
   696  0988  3420               	retlw	32	;' '
   697  0989  3400               	retlw	0
   698  098A                     STR_28:
   699  098A  3444               	retlw	68	;'D'
   700  098B  3461               	retlw	97	;'a'
   701  098C  346E               	retlw	110	;'n'
   702  098D  3467               	retlw	103	;'g'
   703  098E  3420               	retlw	32	;' '
   704  098F  3463               	retlw	99	;'c'
   705  0990  3468               	retlw	104	;'h'
   706  0991  346F               	retlw	111	;'o'
   707  0992  3420               	retlw	32	;' '
   708  0993  3461               	retlw	97	;'a'
   709  0994  346E               	retlw	110	;'n'
   710  0995  342E               	retlw	46	;'.'
   711  0996  342E               	retlw	46	;'.'
   712  0997  342E               	retlw	46	;'.'
   713  0998  3421               	retlw	33	;'!'
   714  0999  3400               	retlw	0
   715  099A                     STR_29:
   716  099A  3444               	retlw	68	;'D'
   717  099B  3461               	retlw	97	;'a'
   718  099C  3420               	retlw	32	;' '
   719  099D  3442               	retlw	66	;'B'
   720  099E  3461               	retlw	97	;'a'
   721  099F  3474               	retlw	116	;'t'
   722  09A0  3420               	retlw	32	;' '
   723  09A1  3471               	retlw	113	;'q'
   724  09A2  3475               	retlw	117	;'u'
   725  09A3  3461               	retlw	97	;'a'
   726  09A4  3474               	retlw	116	;'t'
   727  09A5  342E               	retlw	46	;'.'
   728  09A6  342E               	retlw	46	;'.'
   729  09A7  342E               	retlw	46	;'.'
   730  09A8  3421               	retlw	33	;'!'
   731  09A9  3400               	retlw	0
   732  09AA                     STR_30:
   733  09AA  3444               	retlw	68	;'D'
   734  09AB  3461               	retlw	97	;'a'
   735  09AC  3420               	retlw	32	;' '
   736  09AD  3474               	retlw	116	;'t'
   737  09AE  3461               	retlw	97	;'a'
   738  09AF  3474               	retlw	116	;'t'
   739  09B0  3420               	retlw	32	;' '
   740  09B1  3471               	retlw	113	;'q'
   741  09B2  3475               	retlw	117	;'u'
   742  09B3  3461               	retlw	97	;'a'
   743  09B4  3474               	retlw	116	;'t'
   744  09B5  342E               	retlw	46	;'.'
   745  09B6  342E               	retlw	46	;'.'
   746  09B7  342E               	retlw	46	;'.'
   747  09B8  3421               	retlw	33	;'!'
   748  09B9  3400               	retlw	0
   749  09BA                     STR_16:
   750  09BA  344D               	retlw	77	;'M'
   751  09BB  3461               	retlw	97	;'a'
   752  09BC  3479               	retlw	121	;'y'
   753  09BD  3420               	retlw	32	;' '
   754  09BE  3462               	retlw	98	;'b'
   755  09BF  346F               	retlw	111	;'o'
   756  09C0  346D               	retlw	109	;'m'
   757  09C1  3420               	retlw	32	;' '
   758  09C2  346E               	retlw	110	;'n'
   759  09C3  3475               	retlw	117	;'u'
   760  09C4  346F               	retlw	111	;'o'
   761  09C5  3463               	retlw	99	;'c'
   762  09C6  343A               	retlw	58	;':'
   763  09C7  3420               	retlw	32	;' '
   764  09C8  3400               	retlw	0
   765  09C9                     STR_6:
   766  09C9  3420               	retlw	32	;' '
   767  09CA  3420               	retlw	32	;' '
   768  09CB  3432               	retlw	50	;'2'
   769  09CC  343A               	retlw	58	;':'
   770  09CD  3420               	retlw	32	;' '
   771  09CE  3443               	retlw	67	;'C'
   772  09CF  3468               	retlw	104	;'h'
   773  09D0  346F               	retlw	111	;'o'
   774  09D1  3420               	retlw	32	;' '
   775  09D2  3467               	retlw	103	;'g'
   776  09D3  3461               	retlw	97	;'a'
   777  09D4  3420               	retlw	32	;' '
   778  09D5  3461               	retlw	97	;'a'
   779  09D6  346E               	retlw	110	;'n'
   780  09D7  3400               	retlw	0
   781  09D8                     STR_1:
   782  09D8  344E               	retlw	78	;'N'
   783  09D9  3468               	retlw	104	;'h'
   784  09DA  3469               	retlw	105	;'i'
   785  09DB  3465               	retlw	101	;'e'
   786  09DC  3474               	retlw	116	;'t'
   787  09DD  3420               	retlw	32	;' '
   788  09DE  3464               	retlw	100	;'d'
   789  09DF  346F               	retlw	111	;'o'
   790  09E0  3420               	retlw	32	;' '
   791  09E1  343D               	retlw	61	;'='
   792  09E2  3420               	retlw	32	;' '
   793  09E3  3400               	retlw	0
   794  09E4                     STR_22:
   795  09E4  3454               	retlw	84	;'T'
   796  09E5  3452               	retlw	82	;'R'
   797  09E6  3455               	retlw	85	;'U'
   798  09E7  344E               	retlw	78	;'N'
   799  09E8  3447               	retlw	71	;'G'
   800  09E9  3420               	retlw	32	;' '
   801  09EA  3442               	retlw	66	;'B'
   802  09EB  3449               	retlw	73	;'I'
   803  09EC  344E               	retlw	78	;'N'
   804  09ED  3448               	retlw	72	;'H'
   805  09EE  3400               	retlw	0
   806  09EF                     STR_2:
   807  09EF  3444               	retlw	68	;'D'
   808  09F0  346F               	retlw	111	;'o'
   809  09F1  3420               	retlw	32	;' '
   810  09F2  3461               	retlw	97	;'a'
   811  09F3  346D               	retlw	109	;'m'
   812  09F4  3420               	retlw	32	;' '
   813  09F5  343D               	retlw	61	;'='
   814  09F6  3420               	retlw	32	;' '
   815  09F7  3400               	retlw	0
   816  09F8                     STR_20:
   817  09F8  3444               	retlw	68	;'D'
   818  09F9  3441               	retlw	65	;'A'
   819  09FA  3420               	retlw	32	;' '
   820  09FB  3448               	retlw	72	;'H'
   821  09FC  3445               	retlw	69	;'E'
   822  09FD  3454               	retlw	84	;'T'
   823  09FE  3400               	retlw	0
   824  09FF                     STR_21:
   825  09FF  3443               	retlw	67	;'C'
   826  0A00  344F               	retlw	79	;'O'
   827  0A01  344E               	retlw	78	;'N'
   828  0A02  3420               	retlw	32	;' '
   829  0A03  3449               	retlw	73	;'I'
   830  0A04  3454               	retlw	84	;'T'
   831  0A05  3400               	retlw	0
   832  0A06                     STR_23:
   833  0A06  3444               	retlw	68	;'D'
   834  0A07  3441               	retlw	65	;'A'
   835  0A08  3459               	retlw	89	;'Y'
   836  0A09  3420               	retlw	32	;' '
   837  0A0A  3444               	retlw	68	;'D'
   838  0A0B  3455               	retlw	85	;'U'
   839  0A0C  3400               	retlw	0
   840  0A0D                     STR_10:
   841  0A0D  3420               	retlw	32	;' '
   842  0A0E  3464               	retlw	100	;'d'
   843  0A0F  346F               	retlw	111	;'o'
   844  0A10  3420               	retlw	32	;' '
   845  0A11  3443               	retlw	67	;'C'
   846  0A12  3400               	retlw	0
   847  0A13                     STR_15:
   848  0A13  344F               	retlw	79	;'O'
   849  0A14  3446               	retlw	70	;'F'
   850  0A15  3446               	retlw	70	;'F'
   851  0A16  3400               	retlw	0
   852  0A17                     STR_12:
   853  0A17  3420               	retlw	32	;' '
   854  0A18  3425               	retlw	37	;'%'
   855  0A19  3400               	retlw	0
   856  0A1A                     STR_14:
   857  0A1A  344F               	retlw	79	;'O'
   858  0A1B  344E               	retlw	78	;'N'
   859  0A1C  3400               	retlw	0
   860  0A13                     
   861                           	psect	cinit
   862  07EA                     start_initialization:	
   863                           ; #config settings
   864                           
   865  07EA                     __initialization:
   866                           
   867                           ; Clear objects allocated to BANK0
   868  07EA  1283               	bcf	3,5	;RP0=0, select bank0
   869  07EB  1303               	bcf	3,6	;RP1=0, select bank0
   870  07EC  01ED               	clrf	__pbssBANK0& (0+127)
   871  07ED  01EE               	clrf	(__pbssBANK0+1)& (0+127)
   872                           
   873                           ; Clear objects allocated to BANK1
   874  07EE  1683               	bsf	3,5	;RP0=1, select bank1
   875  07EF  1303               	bcf	3,6	;RP1=0, select bank1
   876  07F0  01A0               	clrf	__pbssBANK1& (0+127)
   877  07F1  01A1               	clrf	(__pbssBANK1+1)& (0+127)
   878  07F2  01A2               	clrf	(__pbssBANK1+2)& (0+127)
   879  07F3  01A3               	clrf	(__pbssBANK1+3)& (0+127)
   880  07F4  01A4               	clrf	(__pbssBANK1+4)& (0+127)
   881  07F5  01A5               	clrf	(__pbssBANK1+5)& (0+127)
   882  07F6  01A6               	clrf	(__pbssBANK1+6)& (0+127)
   883  07F7  01A7               	clrf	(__pbssBANK1+7)& (0+127)
   884  07F8  01A8               	clrf	(__pbssBANK1+8)& (0+127)
   885  07F9  01A9               	clrf	(__pbssBANK1+9)& (0+127)
   886  07FA  01AA               	clrf	(__pbssBANK1+10)& (0+127)
   887  07FB  01AB               	clrf	(__pbssBANK1+11)& (0+127)
   888  07FC                     end_of_initialization:	
   889                           ;End of C runtime variable initialization code
   890                           
   891  07FC                     __end_of__initialization:
   892  07FC  0183               	clrf	3
   893  07FD  120A  158A  2EBF   	ljmp	_main	;jump to C main() function
   894                           
   895                           	psect	bssBANK0
   896  006D                     __pbssBANK0:
   897  006D                     _humidity:
   898  006D                     	ds	1
   899  006E                     _temp:
   900  006E                     	ds	1
   901                           
   902                           	psect	bssBANK1
   903  00A0                     __pbssBANK1:
   904  00A0                     _DATA:
   905  00A0                     	ds	10
   906  00AA                     _value_control:
   907  00AA                     	ds	2
   908                           
   909                           	psect	cstackCOMMON
   910  0070                     __pcstackCOMMON:
   911  0070                     ?_fan_on:
   912  0070                     ??_fan_on:	
   913                           ; 1 bytes @ 0x0
   914                           
   915  0070                     ?_LCD_Clear:	
   916                           ; 1 bytes @ 0x0
   917                           
   918  0070                     ?_LCD_PutChar:	
   919                           ; 1 bytes @ 0x0
   920                           
   921  0070                     ?_print_status:	
   922                           ; 1 bytes @ 0x0
   923                           
   924  0070                     ?_print_option_BT:	
   925                           ; 1 bytes @ 0x0
   926                           
   927  0070                     ?_control_BT:	
   928                           ; 1 bytes @ 0x0
   929                           
   930  0070                     ?_temp_warning:	
   931                           ; 1 bytes @ 0x0
   932                           
   933  0070                     ?_humi_warning:	
   934                           ; 1 bytes @ 0x0
   935                           
   936  0070                     ?_getStringData:	
   937                           ; 1 bytes @ 0x0
   938                           
   939  0070                     ?_DHT11_start:	
   940                           ; 1 bytes @ 0x0
   941                           
   942  0070                     ??_DHT11_start:	
   943                           ; 1 bytes @ 0x0
   944                           
   945  0070                     ?_Read_DTH11:	
   946                           ; 1 bytes @ 0x0
   947                           
   948  0070                     ??_Read_DTH11:	
   949                           ; 1 bytes @ 0x0
   950                           
   951  0070                     ?_checkTemp:	
   952                           ; 1 bytes @ 0x0
   953                           
   954  0070                     ??_checkTemp:	
   955                           ; 1 bytes @ 0x0
   956                           
   957  0070                     ?_print_Temp_Humi_LCD:	
   958                           ; 1 bytes @ 0x0
   959                           
   960  0070                     ?_rotation0:	
   961                           ; 1 bytes @ 0x0
   962                           
   963  0070                     ??_rotation0:	
   964                           ; 1 bytes @ 0x0
   965                           
   966  0070                     ?_rotation90:	
   967                           ; 1 bytes @ 0x0
   968                           
   969  0070                     ??_rotation90:	
   970                           ; 1 bytes @ 0x0
   971                           
   972  0070                     ?_runFood:	
   973                           ; 1 bytes @ 0x0
   974                           
   975  0070                     ?_auto_food:	
   976                           ; 1 bytes @ 0x0
   977                           
   978  0070                     ?_get_level_food:	
   979                           ; 1 bytes @ 0x0
   980                           
   981  0070                     ?_water_init:	
   982                           ; 1 bytes @ 0x0
   983                           
   984  0070                     ??_water_init:	
   985                           ; 1 bytes @ 0x0
   986                           
   987  0070                     ?_water_start:	
   988                           ; 1 bytes @ 0x0
   989                           
   990  0070                     ??_water_start:	
   991                           ; 1 bytes @ 0x0
   992                           
   993  0070                     ?_init_fan:	
   994                           ; 1 bytes @ 0x0
   995                           
   996  0070                     ??_init_fan:	
   997                           ; 1 bytes @ 0x0
   998                           
   999  0070                     ?_fan_off:	
  1000                           ; 1 bytes @ 0x0
  1001                           
  1002  0070                     ??_fan_off:	
  1003                           ; 1 bytes @ 0x0
  1004                           
  1005  0070                     ?_Init_Bluetooth:	
  1006                           ; 1 bytes @ 0x0
  1007                           
  1008  0070                     ??_Init_Bluetooth:	
  1009                           ; 1 bytes @ 0x0
  1010                           
  1011  0070                     ?_BT_load_char:	
  1012                           ; 1 bytes @ 0x0
  1013                           
  1014  0070                     ??_BT_load_char:	
  1015                           ; 1 bytes @ 0x0
  1016                           
  1017  0070                     ?_broadcast_BT:	
  1018                           ; 1 bytes @ 0x0
  1019                           
  1020  0070                     ??_broadcast_BT:	
  1021                           ; 1 bytes @ 0x0
  1022                           
  1023  0070                     ?_BT_get_char:	
  1024                           ; 1 bytes @ 0x0
  1025                           
  1026  0070                     ??_BT_get_char:	
  1027                           ; 1 bytes @ 0x0
  1028                           
  1029  0070                     ?_LCD_Send4Bit:	
  1030                           ; 1 bytes @ 0x0
  1031                           
  1032  0070                     ??_LCD_Send4Bit:	
  1033                           ; 1 bytes @ 0x0
  1034                           
  1035  0070                     ?_LCD_SendCommand:	
  1036                           ; 1 bytes @ 0x0
  1037                           
  1038  0070                     ?_LCD_Init:	
  1039                           ; 1 bytes @ 0x0
  1040                           
  1041  0070                     ?__Umul8_16:	
  1042                           ; 1 bytes @ 0x0
  1043                           
  1044  0070                     ?_main:	
  1045                           ; 2 bytes @ 0x0
  1046                           
  1047  0070                     ?___awdiv:	
  1048                           ; 2 bytes @ 0x0
  1049                           
  1050  0070                     ?___awmod:	
  1051                           ; 2 bytes @ 0x0
  1052                           
  1053  0070                     ?___xxtofl:	
  1054                           ; 2 bytes @ 0x0
  1055                           
  1056  0070                     BT_load_char@byte:	
  1057                           ; 4 bytes @ 0x0
  1058                           
  1059  0070                     __Umul8_16@multiplicand:	
  1060                           ; 1 bytes @ 0x0
  1061                           
  1062  0070                     ___awdiv@divisor:	
  1063                           ; 1 bytes @ 0x0
  1064                           
  1065  0070                     ___awmod@divisor:	
  1066                           ; 2 bytes @ 0x0
  1067                           
  1068  0070                     ___xxtofl@val:	
  1069                           ; 2 bytes @ 0x0
  1070                           
  1071                           
  1072                           ; 4 bytes @ 0x0
  1073  0070                     	ds	1
  1074  0071                     LCD_Send4Bit@a:
  1075                           
  1076                           ; 1 bytes @ 0x1
  1077  0071                     	ds	1
  1078  0072                     ??__Umul8_16:
  1079  0072                     ??_LCD_SendCommand:	
  1080                           ; 1 bytes @ 0x2
  1081                           
  1082  0072                     rotation0@i:	
  1083                           ; 1 bytes @ 0x2
  1084                           
  1085  0072                     rotation90@i:	
  1086                           ; 2 bytes @ 0x2
  1087                           
  1088  0072                     ___awdiv@dividend:	
  1089                           ; 2 bytes @ 0x2
  1090                           
  1091  0072                     ___awmod@dividend:	
  1092                           ; 2 bytes @ 0x2
  1093                           
  1094                           
  1095                           ; 2 bytes @ 0x2
  1096  0072                     	ds	1
  1097  0073                     LCD_SendCommand@command:
  1098                           
  1099                           ; 1 bytes @ 0x3
  1100  0073                     	ds	1
  1101  0074                     ??_LCD_Clear:
  1102  0074                     ?_LCD_Gotoxy:	
  1103                           ; 1 bytes @ 0x4
  1104                           
  1105  0074                     ??_LCD_PutChar:	
  1106                           ; 1 bytes @ 0x4
  1107                           
  1108  0074                     ??_runFood:	
  1109                           ; 1 bytes @ 0x4
  1110                           
  1111  0074                     ??_LCD_Init:	
  1112                           ; 1 bytes @ 0x4
  1113                           
  1114  0074                     ??___awdiv:	
  1115                           ; 1 bytes @ 0x4
  1116                           
  1117  0074                     ??___awmod:	
  1118                           ; 1 bytes @ 0x4
  1119                           
  1120  0074                     ??___xxtofl:	
  1121                           ; 1 bytes @ 0x4
  1122                           
  1123  0074                     LCD_PutChar@data:	
  1124                           ; 1 bytes @ 0x4
  1125                           
  1126  0074                     LCD_Gotoxy@col:	
  1127                           ; 1 bytes @ 0x4
  1128                           
  1129  0074                     __Umul8_16@product:	
  1130                           ; 1 bytes @ 0x4
  1131                           
  1132                           
  1133                           ; 2 bytes @ 0x4
  1134  0074                     	ds	1
  1135  0075                     ?_LCD_PutString:
  1136  0075                     ??_LCD_Gotoxy:	
  1137                           ; 1 bytes @ 0x5
  1138                           
  1139  0075                     ___awdiv@counter:	
  1140                           ; 1 bytes @ 0x5
  1141                           
  1142  0075                     ___awmod@counter:	
  1143                           ; 1 bytes @ 0x5
  1144                           
  1145  0075                     LCD_PutString@s:	
  1146                           ; 1 bytes @ 0x5
  1147                           
  1148                           
  1149                           ; 2 bytes @ 0x5
  1150  0075                     	ds	1
  1151  0076                     Read_DTH11@ii:
  1152  0076                     LCD_Gotoxy@row:	
  1153                           ; 1 bytes @ 0x6
  1154                           
  1155  0076                     ___awdiv@sign:	
  1156                           ; 1 bytes @ 0x6
  1157                           
  1158  0076                     ___awmod@sign:	
  1159                           ; 1 bytes @ 0x6
  1160                           
  1161  0076                     __Umul8_16@word_mpld:	
  1162                           ; 1 bytes @ 0x6
  1163                           
  1164                           
  1165                           ; 2 bytes @ 0x6
  1166  0076                     	ds	1
  1167  0077                     ??_LCD_PutString:
  1168  0077                     Read_DTH11@i:	
  1169                           ; 1 bytes @ 0x7
  1170                           
  1171  0077                     LCD_Gotoxy@address:	
  1172                           ; 1 bytes @ 0x7
  1173                           
  1174  0077                     ___awdiv@quotient:	
  1175                           ; 1 bytes @ 0x7
  1176                           
  1177                           
  1178                           ; 2 bytes @ 0x7
  1179  0077                     	ds	1
  1180  0078                     __Umul8_16@multiplier:
  1181  0078                     ___xxtofl@sign:	
  1182                           ; 1 bytes @ 0x8
  1183                           
  1184                           
  1185                           ; 1 bytes @ 0x8
  1186  0078                     	ds	1
  1187  0079                     ??_getStringData:
  1188  0079                     ??_print_Temp_Humi_LCD:	
  1189                           ; 1 bytes @ 0x9
  1190                           
  1191  0079                     ___xxtofl@exp:	
  1192                           ; 1 bytes @ 0x9
  1193                           
  1194                           
  1195                           ; 1 bytes @ 0x9
  1196  0079                     	ds	1
  1197  007A                     print_Temp_Humi_LCD@i:
  1198  007A                     ___xxtofl@arg:	
  1199                           ; 1 bytes @ 0xA
  1200                           
  1201                           
  1202                           ; 4 bytes @ 0xA
  1203  007A                     	ds	1
  1204  007B                     print_Temp_Humi_LCD@i_142:
  1205                           
  1206                           ; 1 bytes @ 0xB
  1207  007B                     	ds	1
  1208  007C                     ?_BT_load_string:
  1209  007C                     BT_load_string@string:	
  1210                           ; 1 bytes @ 0xC
  1211                           
  1212                           
  1213                           ; 2 bytes @ 0xC
  1214  007C                     	ds	2
  1215  007E                     ??_print_option_BT:
  1216  007E                     ??_control_BT:	
  1217                           ; 1 bytes @ 0xE
  1218                           
  1219  007E                     ??_auto_food:	
  1220                           ; 1 bytes @ 0xE
  1221                           
  1222  007E                     ??_BT_load_string:	
  1223                           ; 1 bytes @ 0xE
  1224                           
  1225                           
  1226                           	psect	cstackBANK0
  1227  0020                     __pcstackBANK0:	
  1228                           ; 1 bytes @ 0xE
  1229                           
  1230  0020                     ?___flmul:
  1231  0020                     getStringData@buff:	
  1232                           ; 4 bytes @ 0x0
  1233                           
  1234  0020                     ___flmul@b:	
  1235                           ; 2 bytes @ 0x0
  1236                           
  1237                           
  1238                           ; 4 bytes @ 0x0
  1239  0020                     	ds	2
  1240  0022                     getStringData@num:
  1241                           
  1242                           ; 1 bytes @ 0x2
  1243  0022                     	ds	1
  1244  0023                     ??_temp_warning:
  1245  0023                     ??_humi_warning:	
  1246                           ; 1 bytes @ 0x3
  1247                           
  1248                           
  1249                           ; 1 bytes @ 0x3
  1250  0023                     	ds	1
  1251  0024                     ___flmul@a:
  1252                           
  1253                           ; 4 bytes @ 0x4
  1254  0024                     	ds	4
  1255  0028                     ??___flmul:
  1256                           
  1257                           ; 1 bytes @ 0x8
  1258  0028                     	ds	5
  1259  002D                     ___flmul@sign:
  1260                           
  1261                           ; 1 bytes @ 0xD
  1262  002D                     	ds	1
  1263  002E                     ___flmul@grs:
  1264                           
  1265                           ; 4 bytes @ 0xE
  1266  002E                     	ds	4
  1267  0032                     ___flmul@aexp:
  1268                           
  1269                           ; 1 bytes @ 0x12
  1270  0032                     	ds	1
  1271  0033                     ___flmul@bexp:
  1272                           
  1273                           ; 1 bytes @ 0x13
  1274  0033                     	ds	1
  1275  0034                     ___flmul@prod:
  1276                           
  1277                           ; 4 bytes @ 0x14
  1278  0034                     	ds	4
  1279  0038                     ___flmul@temp:
  1280                           
  1281                           ; 2 bytes @ 0x18
  1282  0038                     	ds	2
  1283  003A                     ?___fldiv:
  1284  003A                     ___fldiv@a:	
  1285                           ; 4 bytes @ 0x1A
  1286                           
  1287                           
  1288                           ; 4 bytes @ 0x1A
  1289  003A                     	ds	4
  1290  003E                     ___fldiv@b:
  1291                           
  1292                           ; 4 bytes @ 0x1E
  1293  003E                     	ds	4
  1294  0042                     ??___fldiv:
  1295                           
  1296                           ; 1 bytes @ 0x22
  1297  0042                     	ds	5
  1298  0047                     ___fldiv@rem:
  1299                           
  1300                           ; 4 bytes @ 0x27
  1301  0047                     	ds	4
  1302  004B                     ___fldiv@sign:
  1303                           
  1304                           ; 1 bytes @ 0x2B
  1305  004B                     	ds	1
  1306  004C                     ___fldiv@new_exp:
  1307                           
  1308                           ; 2 bytes @ 0x2C
  1309  004C                     	ds	2
  1310  004E                     ___fldiv@grs:
  1311                           
  1312                           ; 4 bytes @ 0x2E
  1313  004E                     	ds	4
  1314  0052                     ___fldiv@bexp:
  1315                           
  1316                           ; 1 bytes @ 0x32
  1317  0052                     	ds	1
  1318  0053                     ___fldiv@aexp:
  1319                           
  1320                           ; 1 bytes @ 0x33
  1321  0053                     	ds	1
  1322  0054                     ?___fltol:
  1323  0054                     ___fltol@f1:	
  1324                           ; 4 bytes @ 0x34
  1325                           
  1326                           
  1327                           ; 4 bytes @ 0x34
  1328  0054                     	ds	4
  1329  0058                     ??___fltol:
  1330                           
  1331                           ; 1 bytes @ 0x38
  1332  0058                     	ds	5
  1333  005D                     ___fltol@sign1:
  1334                           
  1335                           ; 1 bytes @ 0x3D
  1336  005D                     	ds	1
  1337  005E                     ___fltol@exp1:
  1338                           
  1339                           ; 1 bytes @ 0x3E
  1340  005E                     	ds	1
  1341  005F                     ?_distance:
  1342                           
  1343                           ; 2 bytes @ 0x3F
  1344  005F                     	ds	2
  1345  0061                     ??_distance:
  1346                           
  1347                           ; 1 bytes @ 0x41
  1348  0061                     	ds	1
  1349  0062                     distance@distance:
  1350                           
  1351                           ; 2 bytes @ 0x42
  1352  0062                     	ds	2
  1353  0064                     distance@time_taken:
  1354                           
  1355                           ; 2 bytes @ 0x44
  1356  0064                     	ds	2
  1357  0066                     ??_get_level_food:
  1358                           
  1359                           ; 1 bytes @ 0x46
  1360  0066                     	ds	1
  1361  0067                     get_level_food@d:
  1362                           
  1363                           ; 1 bytes @ 0x47
  1364  0067                     	ds	1
  1365  0068                     ??_print_status:
  1366                           
  1367                           ; 1 bytes @ 0x48
  1368  0068                     	ds	2
  1369  006A                     ??_main:
  1370                           
  1371                           ; 1 bytes @ 0x4A
  1372  006A                     	ds	3
  1373                           
  1374                           	psect	maintext
  1375  0EBF                     __pmaintext:	
  1376 ;;
  1377 ;;Main: autosize = 0, tempsize = 3, incstack = 0, save=0
  1378 ;;
  1379 ;; *************** function _main *****************
  1380 ;; Defined at:
  1381 ;;		line 31 in file "newmain.c"
  1382 ;; Parameters:    Size  Location     Type
  1383 ;;		None
  1384 ;; Auto vars:     Size  Location     Type
  1385 ;;		None
  1386 ;; Return value:  Size  Location     Type
  1387 ;;                  2  279[None  ] int 
  1388 ;; Registers used:
  1389 ;;		wreg, fsr0l, fsr0h, status,2, status,0, btemp+1, pclath, cstack
  1390 ;; Tracked objects:
  1391 ;;		On entry : B00/0
  1392 ;;		On exit  : 0/0
  1393 ;;		Unchanged: 0/0
  1394 ;; Data sizes:     COMMON   BANK0   BANK1   BANK3   BANK2
  1395 ;;      Params:         0       0       0       0       0
  1396 ;;      Locals:         0       0       0       0       0
  1397 ;;      Temps:          0       3       0       0       0
  1398 ;;      Totals:         0       3       0       0       0
  1399 ;;Total ram usage:        3 bytes
  1400 ;; Hardware stack levels required when called:    6
  1401 ;; This function calls:
  1402 ;;		_BT_get_char
  1403 ;;		_BT_load_string
  1404 ;;		_DHT11_start
  1405 ;;		_Init_Bluetooth
  1406 ;;		_LCD_Init
  1407 ;;		_Read_DTH11
  1408 ;;		_auto_food
  1409 ;;		_broadcast_BT
  1410 ;;		_control_BT
  1411 ;;		_humi_warning
  1412 ;;		_init_fan
  1413 ;;		_print_Temp_Humi_LCD
  1414 ;;		_print_option_BT
  1415 ;;		_print_status
  1416 ;;		_temp_warning
  1417 ;;		_water_init
  1418 ;;		_water_start
  1419 ;; This function is called by:
  1420 ;;		Startup code after reset
  1421 ;; This function uses a non-reentrant model
  1422 ;;
  1423                           
  1424                           
  1425                           ;psect for function _main
  1426  0EBF                     _main:
  1427  0EBF                     l2790:	
  1428                           ;incstack = 0
  1429                           ; Regs used in _main: [wreg-fsr0h+status,2+status,0+btemp+1+pclath+cstack]
  1430                           
  1431                           
  1432                           ;newmain.c: 32:     TRISD = 0x00;
  1433  0EBF  1683               	bsf	3,5	;RP0=1, select bank1
  1434  0EC0  1303               	bcf	3,6	;RP1=0, select bank1
  1435  0EC1  0188               	clrf	8	;volatile
  1436  0EC2                     l2792:
  1437                           
  1438                           ;newmain.c: 33:     LCD_Init();
  1439  0EC2  120A  158A  2495  120A  158A  	fcall	_LCD_Init
  1440  0EC7                     l2794:
  1441                           
  1442                           ;newmain.c: 35:     T1CON=0x20;
  1443  0EC7  3020               	movlw	32
  1444  0EC8  1283               	bcf	3,5	;RP0=0, select bank0
  1445  0EC9  1303               	bcf	3,6	;RP1=0, select bank0
  1446  0ECA  0090               	movwf	16	;volatile
  1447  0ECB                     l2796:
  1448                           
  1449                           ;newmain.c: 36:     TRISC2 = 0;
  1450  0ECB  1683               	bsf	3,5	;RP0=1, select bank1
  1451  0ECC  1303               	bcf	3,6	;RP1=0, select bank1
  1452  0ECD  1107               	bcf	7,2	;volatile
  1453  0ECE                     l2798:
  1454                           
  1455                           ;newmain.c: 37:     TRISC3 = 1;
  1456  0ECE  1587               	bsf	7,3	;volatile
  1457  0ECF                     l2800:
  1458                           
  1459                           ;newmain.c: 38:     TRISB1 = 0x00;
  1460  0ECF  1086               	bcf	6,1	;volatile
  1461  0ED0                     l2802:
  1462                           
  1463                           ;newmain.c: 39:     RB1 = 1;
  1464  0ED0  1283               	bcf	3,5	;RP0=0, select bank0
  1465  0ED1  1303               	bcf	3,6	;RP1=0, select bank0
  1466  0ED2  1486               	bsf	6,1	;volatile
  1467  0ED3                     l2804:
  1468                           
  1469                           ;newmain.c: 41:     water_init();
  1470  0ED3  160A  118A  26CF  120A  158A  	fcall	_water_init
  1471  0ED8                     l2806:
  1472                           
  1473                           ;newmain.c: 42:     init_fan();
  1474  0ED8  160A  118A  26C6  120A  158A  	fcall	_init_fan
  1475  0EDD                     l2808:
  1476                           
  1477                           ;newmain.c: 43:     TRISB7 = 0x00;
  1478  0EDD  1683               	bsf	3,5	;RP0=1, select bank1
  1479  0EDE  1303               	bcf	3,6	;RP1=0, select bank1
  1480  0EDF  1386               	bcf	6,7	;volatile
  1481  0EE0                     l2810:
  1482                           
  1483                           ;newmain.c: 46:     Init_Bluetooth();
  1484  0EE0  160A  118A  2765  120A  158A  	fcall	_Init_Bluetooth
  1485  0EE5                     l2812:
  1486                           
  1487                           ;newmain.c: 47:     BT_load_string("Bluetooth da duoc ket noi");
  1488  0EE5  302B               	movlw	low (STR_3| (0+32768))
  1489  0EE6  00FC               	movwf	BT_load_string@string
  1490  0EE7  3089               	movlw	high (STR_3| (0+32768))
  1491  0EE8  00FD               	movwf	BT_load_string@string+1
  1492  0EE9  160A  118A  27DA  120A  158A  	fcall	_BT_load_string
  1493  0EEE                     l2814:
  1494                           
  1495                           ;newmain.c: 48:     broadcast_BT();
  1496  0EEE  160A  118A  2711  120A  158A  	fcall	_broadcast_BT
  1497  0EF3                     l2816:
  1498                           
  1499                           ;newmain.c: 50:     DHT11_start();
  1500  0EF3  120A  158A  22BF  120A  158A  	fcall	_DHT11_start
  1501  0EF8                     l2818:
  1502                           
  1503                           ;newmain.c: 51:     Read_DTH11();
  1504  0EF8  120A  158A  25D1  120A  158A  	fcall	_Read_DTH11
  1505  0EFD                     l2820:
  1506                           
  1507                           ;newmain.c: 52:     print_Temp_Humi_LCD();
  1508  0EFD  120A  158A  275A  120A  158A  	fcall	_print_Temp_Humi_LCD
  1509  0F02                     l2822:
  1510                           
  1511                           ;newmain.c: 54:     print_status();
  1512  0F02  120A  118A  21BF  120A  158A  	fcall	_print_status
  1513  0F07                     l2824:
  1514                           
  1515                           ;newmain.c: 55:     print_option_BT();
  1516  0F07  120A  158A  2395  120A  158A  	fcall	_print_option_BT
  1517  0F0C                     l2826:
  1518                           
  1519                           ;newmain.c: 58:         _delay((unsigned long)((1000)*(20000000/4000.0)));
  1520  0F0C  301A               	movlw	26
  1521  0F0D  1283               	bcf	3,5	;RP0=0, select bank0
  1522  0F0E  1303               	bcf	3,6	;RP1=0, select bank0
  1523  0F0F  00EC               	movwf	??_main+2
  1524  0F10  305E               	movlw	94
  1525  0F11  00EB               	movwf	??_main+1
  1526  0F12  306D               	movlw	109
  1527  0F13  00EA               	movwf	??_main
  1528  0F14                     u3277:
  1529  0F14  0BEA               	decfsz	??_main,f
  1530  0F15  2F14               	goto	u3277
  1531  0F16  0BEB               	decfsz	??_main+1,f
  1532  0F17  2F14               	goto	u3277
  1533  0F18  0BEC               	decfsz	??_main+2,f
  1534  0F19  2F14               	goto	u3277
  1535  0F1A  2F1B               	nop2
  1536  0F1B                     l2828:
  1537                           
  1538                           ;newmain.c: 59:         value_control = BT_get_char();
  1539  0F1B  160A  118A  2723  120A  158A  	fcall	_BT_get_char
  1540  0F20  1283               	bcf	3,5	;RP0=0, select bank0
  1541  0F21  1303               	bcf	3,6	;RP1=0, select bank0
  1542  0F22  00EA               	movwf	??_main
  1543  0F23  01EB               	clrf	??_main+1
  1544  0F24  086A               	movf	??_main,w
  1545  0F25  1683               	bsf	3,5	;RP0=1, select bank1
  1546  0F26  1303               	bcf	3,6	;RP1=0, select bank1
  1547  0F27  00AA               	movwf	_value_control^(0+128)
  1548  0F28  1283               	bcf	3,5	;RP0=0, select bank0
  1549  0F29  1303               	bcf	3,6	;RP1=0, select bank0
  1550  0F2A  086B               	movf	??_main+1,w
  1551  0F2B  1683               	bsf	3,5	;RP0=1, select bank1
  1552  0F2C  1303               	bcf	3,6	;RP1=0, select bank1
  1553  0F2D  00AB               	movwf	(_value_control+1)^(0+128)
  1554  0F2E                     l2830:
  1555                           
  1556                           ;newmain.c: 60:         DHT11_start();
  1557  0F2E  120A  158A  22BF  120A  158A  	fcall	_DHT11_start
  1558  0F33                     l2832:
  1559                           
  1560                           ;newmain.c: 61:         Read_DTH11();
  1561  0F33  120A  158A  25D1  120A  158A  	fcall	_Read_DTH11
  1562  0F38                     l2834:
  1563                           
  1564                           ;newmain.c: 64:         control_BT();
  1565  0F38  120A  158A  2560  120A  158A  	fcall	_control_BT
  1566  0F3D                     l2836:
  1567                           
  1568                           ;newmain.c: 65:         print_Temp_Humi_LCD();
  1569  0F3D  120A  158A  275A  120A  158A  	fcall	_print_Temp_Humi_LCD
  1570  0F42                     l2838:
  1571                           
  1572                           ;newmain.c: 67:         water_start();
  1573  0F42  160A  118A  26D9  120A  158A  	fcall	_water_start
  1574  0F47                     l2840:
  1575                           
  1576                           ;newmain.c: 68:         auto_food();
  1577  0F47  160A  118A  277F  120A  158A  	fcall	_auto_food
  1578  0F4C                     l2842:
  1579                           
  1580                           ;newmain.c: 70:         temp_warning();
  1581  0F4C  120A  158A  2324  120A  158A  	fcall	_temp_warning
  1582  0F51                     l2844:
  1583                           
  1584                           ;newmain.c: 71:         humi_warning();
  1585  0F51  120A  158A  22ED  120A  158A  	fcall	_humi_warning
  1586  0F56  2F0C               	goto	l2826
  1587  0F57  120A  118A  2800   	ljmp	start
  1588  0F5A                     __end_of_main:
  1589                           
  1590                           	psect	text1
  1591  16D9                     __ptext1:	
  1592 ;; *************** function _water_start *****************
  1593 ;; Defined at:
  1594 ;;		line 86 in file "./motors.h"
  1595 ;; Parameters:    Size  Location     Type
  1596 ;;		None
  1597 ;; Auto vars:     Size  Location     Type
  1598 ;;		None
  1599 ;; Return value:  Size  Location     Type
  1600 ;;                  1    wreg      void 
  1601 ;; Registers used:
  1602 ;;		None
  1603 ;; Tracked objects:
  1604 ;;		On entry : 0/0
  1605 ;;		On exit  : 0/0
  1606 ;;		Unchanged: 0/0
  1607 ;; Data sizes:     COMMON   BANK0   BANK1   BANK3   BANK2
  1608 ;;      Params:         0       0       0       0       0
  1609 ;;      Locals:         0       0       0       0       0
  1610 ;;      Temps:          0       0       0       0       0
  1611 ;;      Totals:         0       0       0       0       0
  1612 ;;Total ram usage:        0 bytes
  1613 ;; Hardware stack levels used:    1
  1614 ;; This function calls:
  1615 ;;		Nothing
  1616 ;; This function is called by:
  1617 ;;		_main
  1618 ;; This function uses a non-reentrant model
  1619 ;;
  1620                           
  1621                           
  1622                           ;psect for function _water_start
  1623  16D9                     _water_start:
  1624  16D9                     l2632:	
  1625                           ;incstack = 0
  1626                           ; Regs used in _water_start: []
  1627                           
  1628                           
  1629                           ;./motors.h: 87:     if (RB4 == 1) {
  1630  16D9  1283               	bcf	3,5	;RP0=0, select bank0
  1631  16DA  1303               	bcf	3,6	;RP1=0, select bank0
  1632  16DB  1E06               	btfss	6,4	;volatile
  1633  16DC  2EDE               	goto	u3151
  1634  16DD  2EDF               	goto	u3150
  1635  16DE                     u3151:
  1636  16DE  2EE1               	goto	l206
  1637  16DF                     u3150:
  1638  16DF                     l2634:
  1639                           
  1640                           ;./motors.h: 88:         RB6 = 0;
  1641  16DF  1306               	bcf	6,6	;volatile
  1642                           
  1643                           ;./motors.h: 89:     } else {
  1644  16E0  2EE2               	goto	l208
  1645  16E1                     l206:
  1646                           
  1647                           ;./motors.h: 90:         RB6 = 1;
  1648  16E1  1706               	bsf	6,6	;volatile
  1649  16E2                     l208:
  1650  16E2  0008               	return
  1651  16E3                     __end_of_water_start:
  1652                           
  1653                           	psect	text2
  1654  16CF                     __ptext2:	
  1655 ;; *************** function _water_init *****************
  1656 ;; Defined at:
  1657 ;;		line 78 in file "./motors.h"
  1658 ;; Parameters:    Size  Location     Type
  1659 ;;		None
  1660 ;; Auto vars:     Size  Location     Type
  1661 ;;		None
  1662 ;; Return value:  Size  Location     Type
  1663 ;;                  1    wreg      void 
  1664 ;; Registers used:
  1665 ;;		None
  1666 ;; Tracked objects:
  1667 ;;		On entry : 0/0
  1668 ;;		On exit  : 0/0
  1669 ;;		Unchanged: 0/0
  1670 ;; Data sizes:     COMMON   BANK0   BANK1   BANK3   BANK2
  1671 ;;      Params:         0       0       0       0       0
  1672 ;;      Locals:         0       0       0       0       0
  1673 ;;      Temps:          0       0       0       0       0
  1674 ;;      Totals:         0       0       0       0       0
  1675 ;;Total ram usage:        0 bytes
  1676 ;; Hardware stack levels used:    1
  1677 ;; This function calls:
  1678 ;;		Nothing
  1679 ;; This function is called by:
  1680 ;;		_main
  1681 ;; This function uses a non-reentrant model
  1682 ;;
  1683                           
  1684                           
  1685                           ;psect for function _water_init
  1686  16CF                     _water_init:
  1687  16CF                     l2630:	
  1688                           ;incstack = 0
  1689                           ; Regs used in _water_init: []
  1690                           
  1691                           
  1692                           ;./motors.h: 79:     TRISB4 = 1;
  1693  16CF  1683               	bsf	3,5	;RP0=1, select bank1
  1694  16D0  1303               	bcf	3,6	;RP1=0, select bank1
  1695  16D1  1606               	bsf	6,4	;volatile
  1696                           
  1697                           ;./motors.h: 80:     TRISB5 = 0x00;
  1698  16D2  1286               	bcf	6,5	;volatile
  1699                           
  1700                           ;./motors.h: 81:     TRISB6 = 0x00;
  1701  16D3  1306               	bcf	6,6	;volatile
  1702                           
  1703                           ;./motors.h: 82:     RB5 = 0;
  1704  16D4  1283               	bcf	3,5	;RP0=0, select bank0
  1705  16D5  1303               	bcf	3,6	;RP1=0, select bank0
  1706  16D6  1286               	bcf	6,5	;volatile
  1707                           
  1708                           ;./motors.h: 83:     RB6 = 0;
  1709  16D7  1306               	bcf	6,6	;volatile
  1710  16D8                     l203:
  1711  16D8  0008               	return
  1712  16D9                     __end_of_water_init:
  1713                           
  1714                           	psect	text3
  1715  0B24                     __ptext3:	
  1716 ;; *************** function _temp_warning *****************
  1717 ;; Defined at:
  1718 ;;		line 120 in file "newmain.c"
  1719 ;; Parameters:    Size  Location     Type
  1720 ;;		None
  1721 ;; Auto vars:     Size  Location     Type
  1722 ;;		None
  1723 ;; Return value:  Size  Location     Type
  1724 ;;                  1    wreg      void 
  1725 ;; Registers used:
  1726 ;;		wreg, fsr0l, fsr0h, status,2, status,0, btemp+1, pclath, cstack
  1727 ;; Tracked objects:
  1728 ;;		On entry : 0/0
  1729 ;;		On exit  : 0/0
  1730 ;;		Unchanged: 0/0
  1731 ;; Data sizes:     COMMON   BANK0   BANK1   BANK3   BANK2
  1732 ;;      Params:         0       0       0       0       0
  1733 ;;      Locals:         0       0       0       0       0
  1734 ;;      Temps:          0       3       0       0       0
  1735 ;;      Totals:         0       3       0       0       0
  1736 ;;Total ram usage:        3 bytes
  1737 ;; Hardware stack levels used:    1
  1738 ;; Hardware stack levels required when called:    2
  1739 ;; This function calls:
  1740 ;;		_BT_load_string
  1741 ;;		_broadcast_BT
  1742 ;; This function is called by:
  1743 ;;		_main
  1744 ;; This function uses a non-reentrant model
  1745 ;;
  1746                           
  1747                           
  1748                           ;psect for function _temp_warning
  1749  0B24                     _temp_warning:
  1750  0B24                     l2758:	
  1751                           ;incstack = 0
  1752                           ; Regs used in _temp_warning: [wreg-fsr0h+status,2+status,0+btemp+1+pclath+cstack]
  1753                           
  1754                           
  1755                           ;newmain.c: 121:     if (temp > 35) {
  1756  0B24  3024               	movlw	36
  1757  0B25  1283               	bcf	3,5	;RP0=0, select bank0
  1758  0B26  1303               	bcf	3,6	;RP1=0, select bank0
  1759  0B27  026E               	subwf	_temp,w
  1760  0B28  1C03               	skipc
  1761  0B29  2B2B               	goto	u3231
  1762  0B2A  2B2C               	goto	u3230
  1763  0B2B                     u3231:
  1764  0B2B  2B4A               	goto	l2766
  1765  0B2C                     u3230:
  1766  0B2C                     l2760:
  1767                           
  1768                           ;newmain.c: 122:         BT_load_string("WARNING! nhiet do trong chuong qua CAO!");
  1769  0B2C  3053               	movlw	low (STR_24| (0+32768))
  1770  0B2D  00FC               	movwf	BT_load_string@string
  1771  0B2E  3088               	movlw	high (STR_24| (0+32768))
  1772  0B2F  00FD               	movwf	BT_load_string@string+1
  1773  0B30  160A  118A  27DA  120A  158A  	fcall	_BT_load_string
  1774  0B35                     l2762:
  1775                           
  1776                           ;newmain.c: 123:         broadcast_BT();
  1777  0B35  160A  118A  2711  120A  158A  	fcall	_broadcast_BT
  1778  0B3A                     l2764:
  1779                           
  1780                           ;newmain.c: 124:         _delay((unsigned long)((500)*(20000000/4000.0)));
  1781  0B3A  300D               	movlw	13
  1782  0B3B  1283               	bcf	3,5	;RP0=0, select bank0
  1783  0B3C  1303               	bcf	3,6	;RP1=0, select bank0
  1784  0B3D  00A5               	movwf	??_temp_warning+2
  1785  0B3E  30AF               	movlw	175
  1786  0B3F  00A4               	movwf	??_temp_warning+1
  1787  0B40  30B5               	movlw	181
  1788  0B41  00A3               	movwf	??_temp_warning
  1789  0B42                     u3287:
  1790  0B42  0BA3               	decfsz	??_temp_warning,f
  1791  0B43  2B42               	goto	u3287
  1792  0B44  0BA4               	decfsz	??_temp_warning+1,f
  1793  0B45  2B42               	goto	u3287
  1794  0B46  0BA5               	decfsz	??_temp_warning+2,f
  1795  0B47  2B42               	goto	u3287
  1796  0B48  2B49               	nop2
  1797                           
  1798                           ;newmain.c: 125:     } else if(temp < 15) {
  1799  0B49  2B5A               	goto	l305
  1800  0B4A                     l2766:
  1801  0B4A  300F               	movlw	15
  1802  0B4B  026E               	subwf	_temp,w
  1803  0B4C  1803               	skipnc
  1804  0B4D  2B4F               	goto	u3241
  1805  0B4E  2B50               	goto	u3240
  1806  0B4F                     u3241:
  1807  0B4F  2B5A               	goto	l305
  1808  0B50                     u3240:
  1809  0B50                     l2768:
  1810                           
  1811                           ;newmain.c: 126:         BT_load_string("WARNING! nhiet do trong chuong qua THAP!");
  1812  0B50  302A               	movlw	low (STR_25| (0+32768))
  1813  0B51  00FC               	movwf	BT_load_string@string
  1814  0B52  3088               	movlw	high (STR_25| (0+32768))
  1815  0B53  00FD               	movwf	BT_load_string@string+1
  1816  0B54  160A  118A  27DA  120A  158A  	fcall	_BT_load_string
  1817  0B59  2B35               	goto	l2762
  1818  0B5A                     l305:
  1819  0B5A  0008               	return
  1820  0B5B                     __end_of_temp_warning:
  1821                           
  1822                           	psect	text4
  1823  0B95                     __ptext4:	
  1824 ;; *************** function _print_option_BT *****************
  1825 ;; Defined at:
  1826 ;;		line 78 in file "newmain.c"
  1827 ;; Parameters:    Size  Location     Type
  1828 ;;		None
  1829 ;; Auto vars:     Size  Location     Type
  1830 ;;		None
  1831 ;; Return value:  Size  Location     Type
  1832 ;;                  1    wreg      void 
  1833 ;; Registers used:
  1834 ;;		wreg, fsr0l, fsr0h, status,2, status,0, btemp+1, pclath, cstack
  1835 ;; Tracked objects:
  1836 ;;		On entry : 0/0
  1837 ;;		On exit  : 0/0
  1838 ;;		Unchanged: 0/0
  1839 ;; Data sizes:     COMMON   BANK0   BANK1   BANK3   BANK2
  1840 ;;      Params:         0       0       0       0       0
  1841 ;;      Locals:         0       0       0       0       0
  1842 ;;      Temps:          0       0       0       0       0
  1843 ;;      Totals:         0       0       0       0       0
  1844 ;;Total ram usage:        0 bytes
  1845 ;; Hardware stack levels used:    1
  1846 ;; Hardware stack levels required when called:    2
  1847 ;; This function calls:
  1848 ;;		_BT_load_string
  1849 ;;		_broadcast_BT
  1850 ;; This function is called by:
  1851 ;;		_main
  1852 ;; This function uses a non-reentrant model
  1853 ;;
  1854                           
  1855                           
  1856                           ;psect for function _print_option_BT
  1857  0B95                     _print_option_BT:
  1858  0B95                     l2708:	
  1859                           ;incstack = 0
  1860                           ; Regs used in _print_option_BT: [wreg-fsr0h+status,2+status,0+btemp+1+pclath+cstack]
  1861                           
  1862                           
  1863                           ;newmain.c: 79:     BT_load_string("Nhan phim de chon cac chuc nang sau day: ");
  1864  0B95  3000               	movlw	low (STR_4| (0+32768))
  1865  0B96  00FC               	movwf	BT_load_string@string
  1866  0B97  3088               	movlw	high (STR_4| (0+32768))
  1867  0B98  00FD               	movwf	BT_load_string@string+1
  1868  0B99  160A  118A  27DA  120A  158A  	fcall	_BT_load_string
  1869  0B9E                     l2710:
  1870                           
  1871                           ;newmain.c: 80:     broadcast_BT();
  1872  0B9E  160A  118A  2711  120A  158A  	fcall	_broadcast_BT
  1873  0BA3                     l2712:
  1874                           
  1875                           ;newmain.c: 81:     BT_load_string("  1: Hien thi trang thai trong chuong");
  1876  0BA3  30A1               	movlw	low (STR_5| (0+32768))
  1877  0BA4  00FC               	movwf	BT_load_string@string
  1878  0BA5  3088               	movlw	high (STR_5| (0+32768))
  1879  0BA6  00FD               	movwf	BT_load_string@string+1
  1880  0BA7  160A  118A  27DA  120A  158A  	fcall	_BT_load_string
  1881                           
  1882                           ;newmain.c: 82:     broadcast_BT();
  1883  0BAC  160A  118A  2711  120A  158A  	fcall	_broadcast_BT
  1884  0BB1                     l2714:
  1885                           
  1886                           ;newmain.c: 83:     BT_load_string("  2: Cho ga an");
  1887  0BB1  30C9               	movlw	low (STR_6| (0+32768))
  1888  0BB2  00FC               	movwf	BT_load_string@string
  1889  0BB3  3089               	movlw	high (STR_6| (0+32768))
  1890  0BB4  00FD               	movwf	BT_load_string@string+1
  1891  0BB5  160A  118A  27DA  120A  158A  	fcall	_BT_load_string
  1892  0BBA                     l2716:
  1893                           
  1894                           ;newmain.c: 84:     broadcast_BT();
  1895  0BBA  160A  118A  2711  120A  158A  	fcall	_broadcast_BT
  1896                           
  1897                           ;newmain.c: 85:     BT_load_string("  3: Bat quat gio");
  1898  0BBF  3045               	movlw	low (STR_7| (0+32768))
  1899  0BC0  00FC               	movwf	BT_load_string@string
  1900  0BC1  3089               	movlw	high (STR_7| (0+32768))
  1901  0BC2  00FD               	movwf	BT_load_string@string+1
  1902  0BC3  160A  118A  27DA  120A  158A  	fcall	_BT_load_string
  1903  0BC8                     l2718:
  1904                           
  1905                           ;newmain.c: 86:     broadcast_BT();
  1906  0BC8  160A  118A  2711  120A  158A  	fcall	_broadcast_BT
  1907  0BCD                     l2720:
  1908                           
  1909                           ;newmain.c: 87:     BT_load_string("  4: Tat quat gio");
  1910  0BCD  3057               	movlw	low (STR_8| (0+32768))
  1911  0BCE  00FC               	movwf	BT_load_string@string
  1912  0BCF  3089               	movlw	high (STR_8| (0+32768))
  1913  0BD0  00FD               	movwf	BT_load_string@string+1
  1914  0BD1  160A  118A  27DA  120A  158A  	fcall	_BT_load_string
  1915                           
  1916                           ;newmain.c: 88:     broadcast_BT();
  1917  0BD6  160A  118A  2711  120A  158A  	fcall	_broadcast_BT
  1918  0BDB                     l286:
  1919  0BDB  0008               	return
  1920  0BDC                     __end_of_print_option_BT:
  1921                           
  1922                           	psect	text5
  1923  0F5A                     __ptext5:	
  1924 ;; *************** function _print_Temp_Humi_LCD *****************
  1925 ;; Defined at:
  1926 ;;		line 82 in file "./_DHT11.h"
  1927 ;; Parameters:    Size  Location     Type
  1928 ;;		None
  1929 ;; Auto vars:     Size  Location     Type
  1930 ;;  i               1   11[COMMON] unsigned char 
  1931 ;;  i               1   10[COMMON] unsigned char 
  1932 ;; Return value:  Size  Location     Type
  1933 ;;                  1    wreg      void 
  1934 ;; Registers used:
  1935 ;;		wreg, fsr0l, fsr0h, status,2, status,0, btemp+1, pclath, cstack
  1936 ;; Tracked objects:
  1937 ;;		On entry : 0/0
  1938 ;;		On exit  : 0/0
  1939 ;;		Unchanged: 0/0
  1940 ;; Data sizes:     COMMON   BANK0   BANK1   BANK3   BANK2
  1941 ;;      Params:         0       0       0       0       0
  1942 ;;      Locals:         2       0       0       0       0
  1943 ;;      Temps:          1       0       0       0       0
  1944 ;;      Totals:         3       0       0       0       0
  1945 ;;Total ram usage:        3 bytes
  1946 ;; Hardware stack levels used:    1
  1947 ;; Hardware stack levels required when called:    4
  1948 ;; This function calls:
  1949 ;;		_LCD_Clear
  1950 ;;		_LCD_Gotoxy
  1951 ;;		_LCD_PutChar
  1952 ;;		_LCD_PutString
  1953 ;;		___awdiv
  1954 ;;		___awmod
  1955 ;;		_checkTemp
  1956 ;; This function is called by:
  1957 ;;		_main
  1958 ;; This function uses a non-reentrant model
  1959 ;;
  1960                           
  1961                           
  1962                           ;psect for function _print_Temp_Humi_LCD
  1963  0F5A                     _print_Temp_Humi_LCD:
  1964  0F5A                     l2592:	
  1965                           ;incstack = 0
  1966                           ; Regs used in _print_Temp_Humi_LCD: [wreg-fsr0h+status,2+status,0+btemp+1+pclath+cstack
      +                          ]
  1967                           
  1968                           
  1969                           ;./_DHT11.h: 83:     LCD_Clear();
  1970  0F5A  160A  118A  2701  120A  158A  	fcall	_LCD_Clear
  1971  0F5F                     l2594:
  1972                           
  1973                           ;./_DHT11.h: 84:     checkTemp();
  1974  0F5F  120A  158A  235B  120A  158A  	fcall	_checkTemp
  1975  0F64                     l2596:
  1976                           
  1977                           ;./_DHT11.h: 85:     LCD_PutString("Nhiet do = ");
  1978  0F64  30D8               	movlw	low (STR_1| (0+32768))
  1979  0F65  00F5               	movwf	LCD_PutString@s
  1980  0F66  3089               	movlw	high (STR_1| (0+32768))
  1981  0F67  00F6               	movwf	LCD_PutString@s+1
  1982  0F68  120A  158A  221F  120A  158A  	fcall	_LCD_PutString
  1983  0F6D                     l2598:
  1984                           
  1985                           ;./_DHT11.h: 86:     for(uint8_t i=13;i>11;i--){
  1986  0F6D  300D               	movlw	13
  1987  0F6E  00F9               	movwf	??_print_Temp_Humi_LCD
  1988  0F6F  0879               	movf	??_print_Temp_Humi_LCD,w
  1989  0F70  00FA               	movwf	print_Temp_Humi_LCD@i
  1990  0F71                     l2604:
  1991                           
  1992                           ;./_DHT11.h: 87:         LCD_Gotoxy(0,i);
  1993  0F71  087A               	movf	print_Temp_Humi_LCD@i,w
  1994  0F72  00F9               	movwf	??_print_Temp_Humi_LCD
  1995  0F73  0879               	movf	??_print_Temp_Humi_LCD,w
  1996  0F74  00F4               	movwf	LCD_Gotoxy@col
  1997  0F75  3000               	movlw	0
  1998  0F76  160A  118A  2799  120A  158A  	fcall	_LCD_Gotoxy
  1999                           
  2000                           ;./_DHT11.h: 88:         LCD_PutChar(DATA[2] %10+48);
  2001  0F7B  300A               	movlw	10
  2002  0F7C  00F0               	movwf	___awmod@divisor
  2003  0F7D  3000               	movlw	0
  2004  0F7E  00F1               	movwf	___awmod@divisor+1
  2005  0F7F  1683               	bsf	3,5	;RP0=1, select bank1
  2006  0F80  1303               	bcf	3,6	;RP1=0, select bank1
  2007  0F81  0825               	movf	((_DATA+1)^(0+128)+4),w
  2008  0F82  00F3               	movwf	___awmod@dividend+1
  2009  0F83  0824               	movf	(_DATA^(0+128)+4),w
  2010  0F84  00F2               	movwf	___awmod@dividend
  2011  0F85  120A  158A  23DC  120A  158A  	fcall	___awmod
  2012  0F8A  0870               	movf	?___awmod,w
  2013  0F8B  3E30               	addlw	48
  2014  0F8C  160A  118A  26E3  120A  158A  	fcall	_LCD_PutChar
  2015                           
  2016                           ;./_DHT11.h: 89:         DATA[2]= DATA[2]/10;
  2017  0F91  300A               	movlw	10
  2018  0F92  00F0               	movwf	___awdiv@divisor
  2019  0F93  3000               	movlw	0
  2020  0F94  00F1               	movwf	___awdiv@divisor+1
  2021  0F95  1683               	bsf	3,5	;RP0=1, select bank1
  2022  0F96  1303               	bcf	3,6	;RP1=0, select bank1
  2023  0F97  0825               	movf	((_DATA+1)^(0+128)+4),w
  2024  0F98  00F3               	movwf	___awdiv@dividend+1
  2025  0F99  0824               	movf	(_DATA^(0+128)+4),w
  2026  0F9A  00F2               	movwf	___awdiv@dividend
  2027  0F9B  120A  158A  24F9  120A  158A  	fcall	___awdiv
  2028  0FA0  0871               	movf	?___awdiv+1,w
  2029  0FA1  1683               	bsf	3,5	;RP0=1, select bank1
  2030  0FA2  1303               	bcf	3,6	;RP1=0, select bank1
  2031  0FA3  00A5               	movwf	((_DATA+1)^(0+128)+4)
  2032  0FA4  0870               	movf	?___awdiv,w
  2033  0FA5  00A4               	movwf	(_DATA^(0+128)+4)
  2034  0FA6                     l2606:
  2035                           
  2036                           ;./_DHT11.h: 90:     }
  2037  0FA6  3001               	movlw	1
  2038  0FA7  02FA               	subwf	print_Temp_Humi_LCD@i,f
  2039  0FA8                     l2608:
  2040  0FA8  300C               	movlw	12
  2041  0FA9  027A               	subwf	print_Temp_Humi_LCD@i,w
  2042  0FAA  1803               	skipnc
  2043  0FAB  2FAD               	goto	u3121
  2044  0FAC  2FAE               	goto	u3120
  2045  0FAD                     u3121:
  2046  0FAD  2F71               	goto	l2604
  2047  0FAE                     u3120:
  2048  0FAE                     l2610:
  2049                           
  2050                           ;./_DHT11.h: 93:     LCD_Gotoxy(1,0);
  2051  0FAE  01F4               	clrf	LCD_Gotoxy@col
  2052  0FAF  3001               	movlw	1
  2053  0FB0  160A  118A  2799  120A  158A  	fcall	_LCD_Gotoxy
  2054  0FB5                     l2612:
  2055                           
  2056                           ;./_DHT11.h: 94:     LCD_PutString("Do am = ");
  2057  0FB5  30EF               	movlw	low (STR_2| (0+32768))
  2058  0FB6  00F5               	movwf	LCD_PutString@s
  2059  0FB7  3089               	movlw	high (STR_2| (0+32768))
  2060  0FB8  00F6               	movwf	LCD_PutString@s+1
  2061  0FB9  120A  158A  221F  120A  158A  	fcall	_LCD_PutString
  2062  0FBE                     l2614:
  2063                           
  2064                           ;./_DHT11.h: 95:     for(uint8_t i=13;i>11;i--){
  2065  0FBE  300D               	movlw	13
  2066  0FBF  00F9               	movwf	??_print_Temp_Humi_LCD
  2067  0FC0  0879               	movf	??_print_Temp_Humi_LCD,w
  2068  0FC1  00FB               	movwf	print_Temp_Humi_LCD@i_142
  2069  0FC2                     l2620:
  2070                           
  2071                           ;./_DHT11.h: 96:         LCD_Gotoxy(1,i);
  2072  0FC2  087B               	movf	print_Temp_Humi_LCD@i_142,w
  2073  0FC3  00F9               	movwf	??_print_Temp_Humi_LCD
  2074  0FC4  0879               	movf	??_print_Temp_Humi_LCD,w
  2075  0FC5  00F4               	movwf	LCD_Gotoxy@col
  2076  0FC6  3001               	movlw	1
  2077  0FC7  160A  118A  2799  120A  158A  	fcall	_LCD_Gotoxy
  2078                           
  2079                           ;./_DHT11.h: 97:         LCD_PutChar(DATA[0] %10+48);
  2080  0FCC  300A               	movlw	10
  2081  0FCD  00F0               	movwf	___awmod@divisor
  2082  0FCE  3000               	movlw	0
  2083  0FCF  00F1               	movwf	___awmod@divisor+1
  2084  0FD0  1683               	bsf	3,5	;RP0=1, select bank1
  2085  0FD1  1303               	bcf	3,6	;RP1=0, select bank1
  2086  0FD2  0821               	movf	(_DATA+1)^(0+128),w
  2087  0FD3  00F3               	movwf	___awmod@dividend+1
  2088  0FD4  0820               	movf	_DATA^(0+128),w
  2089  0FD5  00F2               	movwf	___awmod@dividend
  2090  0FD6  120A  158A  23DC  120A  158A  	fcall	___awmod
  2091  0FDB  0870               	movf	?___awmod,w
  2092  0FDC  3E30               	addlw	48
  2093  0FDD  160A  118A  26E3  120A  158A  	fcall	_LCD_PutChar
  2094                           
  2095                           ;./_DHT11.h: 98:         DATA[0]=DATA[0]/10;
  2096  0FE2  300A               	movlw	10
  2097  0FE3  00F0               	movwf	___awdiv@divisor
  2098  0FE4  3000               	movlw	0
  2099  0FE5  00F1               	movwf	___awdiv@divisor+1
  2100  0FE6  1683               	bsf	3,5	;RP0=1, select bank1
  2101  0FE7  1303               	bcf	3,6	;RP1=0, select bank1
  2102  0FE8  0821               	movf	(_DATA+1)^(0+128),w
  2103  0FE9  00F3               	movwf	___awdiv@dividend+1
  2104  0FEA  0820               	movf	_DATA^(0+128),w
  2105  0FEB  00F2               	movwf	___awdiv@dividend
  2106  0FEC  120A  158A  24F9  120A  158A  	fcall	___awdiv
  2107  0FF1  0871               	movf	?___awdiv+1,w
  2108  0FF2  1683               	bsf	3,5	;RP0=1, select bank1
  2109  0FF3  1303               	bcf	3,6	;RP1=0, select bank1
  2110  0FF4  00A1               	movwf	(_DATA+1)^(0+128)
  2111  0FF5  0870               	movf	?___awdiv,w
  2112  0FF6  00A0               	movwf	_DATA^(0+128)
  2113  0FF7                     l2622:
  2114                           
  2115                           ;./_DHT11.h: 99:     }
  2116  0FF7  3001               	movlw	1
  2117  0FF8  02FB               	subwf	print_Temp_Humi_LCD@i_142,f
  2118  0FF9                     l2624:
  2119  0FF9  300C               	movlw	12
  2120  0FFA  027B               	subwf	print_Temp_Humi_LCD@i_142,w
  2121  0FFB  1803               	skipnc
  2122  0FFC  2FFE               	goto	u3131
  2123  0FFD  2FFF               	goto	u3130
  2124  0FFE                     u3131:
  2125  0FFE  2FC2               	goto	l2620
  2126  0FFF                     u3130:
  2127  0FFF                     l168:
  2128  0FFF  0008               	return
  2129  1000                     __end_of_print_Temp_Humi_LCD:
  2130                           
  2131                           	psect	text6
  2132  0B5B                     __ptext6:	
  2133 ;; *************** function _checkTemp *****************
  2134 ;; Defined at:
  2135 ;;		line 60 in file "./_DHT11.h"
  2136 ;; Parameters:    Size  Location     Type
  2137 ;;		None
  2138 ;; Auto vars:     Size  Location     Type
  2139 ;;		None
  2140 ;; Return value:  Size  Location     Type
  2141 ;;                  1    wreg      void 
  2142 ;; Registers used:
  2143 ;;		wreg, status,2, status,0, btemp+1, pclath, cstack
  2144 ;; Tracked objects:
  2145 ;;		On entry : 0/0
  2146 ;;		On exit  : 0/0
  2147 ;;		Unchanged: 0/0
  2148 ;; Data sizes:     COMMON   BANK0   BANK1   BANK3   BANK2
  2149 ;;      Params:         0       0       0       0       0
  2150 ;;      Locals:         0       0       0       0       0
  2151 ;;      Temps:          0       0       0       0       0
  2152 ;;      Totals:         0       0       0       0       0
  2153 ;;Total ram usage:        0 bytes
  2154 ;; Hardware stack levels used:    1
  2155 ;; Hardware stack levels required when called:    1
  2156 ;; This function calls:
  2157 ;;		_fan_on
  2158 ;; This function is called by:
  2159 ;;		_print_Temp_Humi_LCD
  2160 ;; This function uses a non-reentrant model
  2161 ;;
  2162                           
  2163                           
  2164                           ;psect for function _checkTemp
  2165  0B5B                     _checkTemp:
  2166  0B5B                     l2450:	
  2167                           ;incstack = 0
  2168                           ; Regs used in _checkTemp: [wreg+status,2+status,0+btemp+1+pclath+cstack]
  2169                           
  2170                           
  2171                           ;./_DHT11.h: 61:     if(DATA[2] <= 28) {
  2172  0B5B  1683               	bsf	3,5	;RP0=1, select bank1
  2173  0B5C  1303               	bcf	3,6	;RP1=0, select bank1
  2174  0B5D  0825               	movf	((_DATA+1)^(0+128)+4),w
  2175  0B5E  3A80               	xorlw	128
  2176  0B5F  00FF               	movwf	btemp+1
  2177  0B60  3080               	movlw	128
  2178  0B61  027F               	subwf	btemp+1,w
  2179  0B62  1D03               	skipz
  2180  0B63  2B66               	goto	u2985
  2181  0B64  301D               	movlw	29
  2182  0B65  0224               	subwf	(_DATA^(0+128)+4),w
  2183  0B66                     u2985:
  2184  0B66  1803               	skipnc
  2185  0B67  2B69               	goto	u2981
  2186  0B68  2B6A               	goto	u2980
  2187  0B69                     u2981:
  2188  0B69  2B6E               	goto	l2454
  2189  0B6A                     u2980:
  2190  0B6A                     l2452:
  2191                           
  2192                           ;./_DHT11.h: 62:         RB1 = 0;
  2193  0B6A  1283               	bcf	3,5	;RP0=0, select bank0
  2194  0B6B  1303               	bcf	3,6	;RP1=0, select bank0
  2195  0B6C  1086               	bcf	6,1	;volatile
  2196                           
  2197                           ;./_DHT11.h: 63:     } else if(DATA[2] >= 35) {
  2198  0B6D  2B80               	goto	l2458
  2199  0B6E                     l2454:
  2200  0B6E  1683               	bsf	3,5	;RP0=1, select bank1
  2201  0B6F  1303               	bcf	3,6	;RP1=0, select bank1
  2202  0B70  0825               	movf	((_DATA+1)^(0+128)+4),w
  2203  0B71  3A80               	xorlw	128
  2204  0B72  00FF               	movwf	btemp+1
  2205  0B73  3080               	movlw	128
  2206  0B74  027F               	subwf	btemp+1,w
  2207  0B75  1D03               	skipz
  2208  0B76  2B79               	goto	u2995
  2209  0B77  3023               	movlw	35
  2210  0B78  0224               	subwf	(_DATA^(0+128)+4),w
  2211  0B79                     u2995:
  2212  0B79  1C03               	skipc
  2213  0B7A  2B7C               	goto	u2991
  2214  0B7B  2B7D               	goto	u2990
  2215  0B7C                     u2991:
  2216  0B7C  2B80               	goto	l2458
  2217  0B7D                     u2990:
  2218  0B7D                     l2456:
  2219                           
  2220                           ;./_DHT11.h: 64:         RB1 = 1;
  2221  0B7D  1283               	bcf	3,5	;RP0=0, select bank0
  2222  0B7E  1303               	bcf	3,6	;RP1=0, select bank0
  2223  0B7F  1486               	bsf	6,1	;volatile
  2224  0B80                     l2458:
  2225                           
  2226                           ;./_DHT11.h: 67:     if (DATA[0] >= 75) {
  2227  0B80  1683               	bsf	3,5	;RP0=1, select bank1
  2228  0B81  1303               	bcf	3,6	;RP1=0, select bank1
  2229  0B82  0821               	movf	(_DATA+1)^(0+128),w
  2230  0B83  3A80               	xorlw	128
  2231  0B84  00FF               	movwf	btemp+1
  2232  0B85  3080               	movlw	128
  2233  0B86  027F               	subwf	btemp+1,w
  2234  0B87  1D03               	skipz
  2235  0B88  2B8B               	goto	u3005
  2236  0B89  304B               	movlw	75
  2237  0B8A  0220               	subwf	_DATA^(0+128),w
  2238  0B8B                     u3005:
  2239  0B8B  1C03               	skipc
  2240  0B8C  2B8E               	goto	u3001
  2241  0B8D  2B8F               	goto	u3000
  2242  0B8E                     u3001:
  2243  0B8E  2B94               	goto	l158
  2244  0B8F                     u3000:
  2245  0B8F                     l2460:
  2246                           
  2247                           ;./_DHT11.h: 68:         fan_on();
  2248  0B8F  160A  118A  26C2  120A  158A  	fcall	_fan_on
  2249  0B94                     l158:
  2250  0B94  0008               	return
  2251  0B95                     __end_of_checkTemp:
  2252                           
  2253                           	psect	text7
  2254  0A1F                     __ptext7:	
  2255 ;; *************** function _LCD_PutString *****************
  2256 ;; Defined at:
  2257 ;;		line 57 in file "./_lcd_module.h"
  2258 ;; Parameters:    Size  Location     Type
  2259 ;;  s               2    5[COMMON] PTR unsigned char 
  2260 ;;		 -> STR_2(9), STR_1(12), 
  2261 ;; Auto vars:     Size  Location     Type
  2262 ;;		None
  2263 ;; Return value:  Size  Location     Type
  2264 ;;                  1    wreg      void 
  2265 ;; Registers used:
  2266 ;;		wreg, fsr0l, fsr0h, status,2, status,0, btemp+1, pclath, cstack
  2267 ;; Tracked objects:
  2268 ;;		On entry : 0/0
  2269 ;;		On exit  : 0/0
  2270 ;;		Unchanged: 0/0
  2271 ;; Data sizes:     COMMON   BANK0   BANK1   BANK3   BANK2
  2272 ;;      Params:         2       0       0       0       0
  2273 ;;      Locals:         0       0       0       0       0
  2274 ;;      Temps:          0       0       0       0       0
  2275 ;;      Totals:         2       0       0       0       0
  2276 ;;Total ram usage:        2 bytes
  2277 ;; Hardware stack levels used:    1
  2278 ;; Hardware stack levels required when called:    3
  2279 ;; This function calls:
  2280 ;;		_LCD_PutChar
  2281 ;; This function is called by:
  2282 ;;		_print_Temp_Humi_LCD
  2283 ;; This function uses a non-reentrant model
  2284 ;;
  2285                           
  2286                           
  2287                           ;psect for function _LCD_PutString
  2288  0A1F                     _LCD_PutString:
  2289  0A1F                     l2466:	
  2290                           ;incstack = 0
  2291                           ; Regs used in _LCD_PutString: [wreg-fsr0h+status,2+status,0+btemp+1+pclath+cstack]
  2292                           
  2293                           
  2294                           ;./_lcd_module.h: 58:    while (*s) {
  2295  0A1F  2A34               	goto	l2472
  2296  0A20                     l2468:
  2297                           
  2298                           ;./_lcd_module.h: 59:       LCD_PutChar(*s);
  2299  0A20  0876               	movf	LCD_PutString@s+1,w
  2300  0A21  00FF               	movwf	btemp+1
  2301  0A22  0875               	movf	LCD_PutString@s,w
  2302  0A23  0084               	movwf	4
  2303  0A24  160A  118A  2000  120A  158A  	fcall	stringtab
  2304  0A29  160A  118A  26E3  120A  158A  	fcall	_LCD_PutChar
  2305  0A2E                     l2470:
  2306                           
  2307                           ;./_lcd_module.h: 60:       s++;
  2308  0A2E  3001               	movlw	1
  2309  0A2F  07F5               	addwf	LCD_PutString@s,f
  2310  0A30  1803               	skipnc
  2311  0A31  0AF6               	incf	LCD_PutString@s+1,f
  2312  0A32  3000               	movlw	0
  2313  0A33  07F6               	addwf	LCD_PutString@s+1,f
  2314  0A34                     l2472:
  2315                           
  2316                           ;./_lcd_module.h: 58:    while (*s) {
  2317  0A34  0876               	movf	LCD_PutString@s+1,w
  2318  0A35  1283               	bcf	3,5	;RP0=0, select bank0
  2319  0A36  1303               	bcf	3,6	;RP1=0, select bank0
  2320  0A37  00FF               	movwf	btemp+1
  2321  0A38  0875               	movf	LCD_PutString@s,w
  2322  0A39  0084               	movwf	4
  2323  0A3A  160A  118A  2000  120A  158A  	fcall	stringtab
  2324  0A3F  3A00               	xorlw	0
  2325  0A40  1D03               	skipz
  2326  0A41  2A43               	goto	u3011
  2327  0A42  2A44               	goto	u3010
  2328  0A43                     u3011:
  2329  0A43  2A20               	goto	l2468
  2330  0A44                     u3010:
  2331  0A44                     l265:
  2332  0A44  0008               	return
  2333  0A45                     __end_of_LCD_PutString:
  2334                           
  2335                           	psect	text8
  2336  16E3                     __ptext8:	
  2337 ;; *************** function _LCD_PutChar *****************
  2338 ;; Defined at:
  2339 ;;		line 50 in file "./_lcd_module.h"
  2340 ;; Parameters:    Size  Location     Type
  2341 ;;  data            1    wreg     unsigned char 
  2342 ;; Auto vars:     Size  Location     Type
  2343 ;;  data            1    4[COMMON] unsigned char 
  2344 ;; Return value:  Size  Location     Type
  2345 ;;                  1    wreg      void 
  2346 ;; Registers used:
  2347 ;;		wreg, status,2, status,0, pclath, cstack
  2348 ;; Tracked objects:
  2349 ;;		On entry : 0/0
  2350 ;;		On exit  : 0/0
  2351 ;;		Unchanged: 0/0
  2352 ;; Data sizes:     COMMON   BANK0   BANK1   BANK3   BANK2
  2353 ;;      Params:         0       0       0       0       0
  2354 ;;      Locals:         1       0       0       0       0
  2355 ;;      Temps:          0       0       0       0       0
  2356 ;;      Totals:         1       0       0       0       0
  2357 ;;Total ram usage:        1 bytes
  2358 ;; Hardware stack levels used:    1
  2359 ;; Hardware stack levels required when called:    2
  2360 ;; This function calls:
  2361 ;;		_LCD_SendCommand
  2362 ;; This function is called by:
  2363 ;;		_print_Temp_Humi_LCD
  2364 ;;		_LCD_PutString
  2365 ;; This function uses a non-reentrant model
  2366 ;;
  2367                           
  2368                           
  2369                           ;psect for function _LCD_PutChar
  2370  16E3                     _LCD_PutChar:
  2371                           
  2372                           ;incstack = 0
  2373                           ; Regs used in _LCD_PutChar: [wreg+status,2+status,0+pclath+cstack]
  2374                           ;LCD_PutChar@data stored from wreg
  2375  16E3  00F4               	movwf	LCD_PutChar@data
  2376  16E4                     l2390:
  2377                           
  2378                           ;./_lcd_module.h: 50: void LCD_PutChar (unsigned char data);./_lcd_module.h: 51: {;./_lc
      +                          d_module.h: 52:     RD1=1;
  2379  16E4  1283               	bcf	3,5	;RP0=0, select bank0
  2380  16E5  1303               	bcf	3,6	;RP1=0, select bank0
  2381  16E6  1488               	bsf	8,1	;volatile
  2382  16E7                     l2392:
  2383                           
  2384                           ;./_lcd_module.h: 53:     LCD_SendCommand (data);
  2385  16E7  0874               	movf	LCD_PutChar@data,w
  2386  16E8  160A  118A  2737  160A  118A  	fcall	_LCD_SendCommand
  2387  16ED                     l2394:
  2388                           
  2389                           ;./_lcd_module.h: 54:     RD1=0;
  2390  16ED  1283               	bcf	3,5	;RP0=0, select bank0
  2391  16EE  1303               	bcf	3,6	;RP1=0, select bank0
  2392  16EF  1088               	bcf	8,1	;volatile
  2393  16F0                     l259:
  2394  16F0  0008               	return
  2395  16F1                     __end_of_LCD_PutChar:
  2396                           
  2397                           	psect	text9
  2398  1799                     __ptext9:	
  2399 ;; *************** function _LCD_Gotoxy *****************
  2400 ;; Defined at:
  2401 ;;		line 70 in file "./_lcd_module.h"
  2402 ;; Parameters:    Size  Location     Type
  2403 ;;  row             1    wreg     unsigned char 
  2404 ;;  col             1    4[COMMON] unsigned char 
  2405 ;; Auto vars:     Size  Location     Type
  2406 ;;  row             1    6[COMMON] unsigned char 
  2407 ;;  address         1    7[COMMON] unsigned char 
  2408 ;; Return value:  Size  Location     Type
  2409 ;;                  1    wreg      void 
  2410 ;; Registers used:
  2411 ;;		wreg, status,2, status,0, pclath, cstack
  2412 ;; Tracked objects:
  2413 ;;		On entry : 0/0
  2414 ;;		On exit  : 0/0
  2415 ;;		Unchanged: 0/0
  2416 ;; Data sizes:     COMMON   BANK0   BANK1   BANK3   BANK2
  2417 ;;      Params:         1       0       0       0       0
  2418 ;;      Locals:         2       0       0       0       0
  2419 ;;      Temps:          1       0       0       0       0
  2420 ;;      Totals:         4       0       0       0       0
  2421 ;;Total ram usage:        4 bytes
  2422 ;; Hardware stack levels used:    1
  2423 ;; Hardware stack levels required when called:    2
  2424 ;; This function calls:
  2425 ;;		_LCD_SendCommand
  2426 ;; This function is called by:
  2427 ;;		_print_Temp_Humi_LCD
  2428 ;; This function uses a non-reentrant model
  2429 ;;
  2430                           
  2431                           
  2432                           ;psect for function _LCD_Gotoxy
  2433  1799                     _LCD_Gotoxy:
  2434                           
  2435                           ;incstack = 0
  2436                           ; Regs used in _LCD_Gotoxy: [wreg+status,2+status,0+pclath+cstack]
  2437                           ;LCD_Gotoxy@row stored from wreg
  2438  1799  00F6               	movwf	LCD_Gotoxy@row
  2439  179A                     l2474:
  2440                           
  2441                           ;./_lcd_module.h: 70: void LCD_Gotoxy(unsigned char row, unsigned char col);./_lcd_modul
      +                          e.h: 71: {;./_lcd_module.h: 72:   unsigned char address;;./_lcd_module.h: 73:   if(row==
      +                          0)
  2442  179A  0876               	movf	LCD_Gotoxy@row,w
  2443  179B  1D03               	btfss	3,2
  2444  179C  2F9E               	goto	u3021
  2445  179D  2F9F               	goto	u3020
  2446  179E                     u3021:
  2447  179E  2FA5               	goto	l2478
  2448  179F                     u3020:
  2449  179F                     l2476:
  2450                           
  2451                           ;./_lcd_module.h: 74:       address=0x80 + col;
  2452  179F  0874               	movf	LCD_Gotoxy@col,w
  2453  17A0  3E80               	addlw	128
  2454  17A1  00F5               	movwf	??_LCD_Gotoxy
  2455  17A2  0875               	movf	??_LCD_Gotoxy,w
  2456  17A3  00F7               	movwf	LCD_Gotoxy@address
  2457  17A4  2FAA               	goto	l2480
  2458  17A5                     l2478:
  2459  17A5  0874               	movf	LCD_Gotoxy@col,w
  2460  17A6  3EC0               	addlw	192
  2461  17A7  00F5               	movwf	??_LCD_Gotoxy
  2462  17A8  0875               	movf	??_LCD_Gotoxy,w
  2463  17A9  00F7               	movwf	LCD_Gotoxy@address
  2464  17AA                     l2480:
  2465                           
  2466                           ;./_lcd_module.h: 77:   LCD_SendCommand(address);
  2467  17AA  0877               	movf	LCD_Gotoxy@address,w
  2468  17AB  160A  118A  2737  160A  118A  	fcall	_LCD_SendCommand
  2469  17B0                     l2482:
  2470                           
  2471                           ;./_lcd_module.h: 78:   _delay((unsigned long)((50)*(20000000/4000000.0)));
  2472  17B0  3053               	movlw	83
  2473  17B1  00F5               	movwf	??_LCD_Gotoxy
  2474  17B2                     u3297:
  2475  17B2  0BF5               	decfsz	??_LCD_Gotoxy,f
  2476  17B3  2FB2               	goto	u3297
  2477  17B4                     l273:
  2478  17B4  0008               	return
  2479  17B5                     __end_of_LCD_Gotoxy:
  2480                           
  2481                           	psect	text10
  2482  1701                     __ptext10:	
  2483 ;; *************** function _LCD_Clear *****************
  2484 ;; Defined at:
  2485 ;;		line 64 in file "./_lcd_module.h"
  2486 ;; Parameters:    Size  Location     Type
  2487 ;;		None
  2488 ;; Auto vars:     Size  Location     Type
  2489 ;;		None
  2490 ;; Return value:  Size  Location     Type
  2491 ;;                  1    wreg      void 
  2492 ;; Registers used:
  2493 ;;		wreg, status,2, status,0, pclath, cstack
  2494 ;; Tracked objects:
  2495 ;;		On entry : 0/0
  2496 ;;		On exit  : 0/0
  2497 ;;		Unchanged: 0/0
  2498 ;; Data sizes:     COMMON   BANK0   BANK1   BANK3   BANK2
  2499 ;;      Params:         0       0       0       0       0
  2500 ;;      Locals:         0       0       0       0       0
  2501 ;;      Temps:          2       0       0       0       0
  2502 ;;      Totals:         2       0       0       0       0
  2503 ;;Total ram usage:        2 bytes
  2504 ;; Hardware stack levels used:    1
  2505 ;; Hardware stack levels required when called:    2
  2506 ;; This function calls:
  2507 ;;		_LCD_SendCommand
  2508 ;; This function is called by:
  2509 ;;		_print_Temp_Humi_LCD
  2510 ;; This function uses a non-reentrant model
  2511 ;;
  2512                           
  2513                           
  2514                           ;psect for function _LCD_Clear
  2515  1701                     _LCD_Clear:
  2516  1701                     l2462:	
  2517                           ;incstack = 0
  2518                           ; Regs used in _LCD_Clear: [wreg+status,2+status,0+pclath+cstack]
  2519                           
  2520                           
  2521                           ;./_lcd_module.h: 66:   LCD_SendCommand(0x01);
  2522  1701  3001               	movlw	1
  2523  1702  160A  118A  2737  160A  118A  	fcall	_LCD_SendCommand
  2524  1707                     l2464:
  2525                           
  2526                           ;./_lcd_module.h: 67:   _delay((unsigned long)((5)*(20000000/4000.0)));
  2527  1707  3021               	movlw	33
  2528  1708  00F5               	movwf	??_LCD_Clear+1
  2529  1709  3076               	movlw	118
  2530  170A  00F4               	movwf	??_LCD_Clear
  2531  170B                     u3307:
  2532  170B  0BF4               	decfsz	??_LCD_Clear,f
  2533  170C  2F0B               	goto	u3307
  2534  170D  0BF5               	decfsz	??_LCD_Clear+1,f
  2535  170E  2F0B               	goto	u3307
  2536  170F  0000               	nop
  2537  1710                     l268:
  2538  1710  0008               	return
  2539  1711                     __end_of_LCD_Clear:
  2540                           
  2541                           	psect	text11
  2542  16C6                     __ptext11:	
  2543 ;; *************** function _init_fan *****************
  2544 ;; Defined at:
  2545 ;;		line 96 in file "./motors.h"
  2546 ;; Parameters:    Size  Location     Type
  2547 ;;		None
  2548 ;; Auto vars:     Size  Location     Type
  2549 ;;		None
  2550 ;; Return value:  Size  Location     Type
  2551 ;;                  1    wreg      void 
  2552 ;; Registers used:
  2553 ;;		None
  2554 ;; Tracked objects:
  2555 ;;		On entry : 0/0
  2556 ;;		On exit  : 0/0
  2557 ;;		Unchanged: 0/0
  2558 ;; Data sizes:     COMMON   BANK0   BANK1   BANK3   BANK2
  2559 ;;      Params:         0       0       0       0       0
  2560 ;;      Locals:         0       0       0       0       0
  2561 ;;      Temps:          0       0       0       0       0
  2562 ;;      Totals:         0       0       0       0       0
  2563 ;;Total ram usage:        0 bytes
  2564 ;; Hardware stack levels used:    1
  2565 ;; This function calls:
  2566 ;;		Nothing
  2567 ;; This function is called by:
  2568 ;;		_main
  2569 ;; This function uses a non-reentrant model
  2570 ;;
  2571                           
  2572                           
  2573                           ;psect for function _init_fan
  2574  16C6                     _init_fan:
  2575  16C6                     l2636:	
  2576                           ;incstack = 0
  2577                           ; Regs used in _init_fan: []
  2578                           
  2579                           
  2580                           ;./motors.h: 97:     TRISB2 = 0x00;
  2581  16C6  1683               	bsf	3,5	;RP0=1, select bank1
  2582  16C7  1303               	bcf	3,6	;RP1=0, select bank1
  2583  16C8  1106               	bcf	6,2	;volatile
  2584                           
  2585                           ;./motors.h: 98:     TRISB3 = 0x00;
  2586  16C9  1186               	bcf	6,3	;volatile
  2587                           
  2588                           ;./motors.h: 99:     RB2 = 0;
  2589  16CA  1283               	bcf	3,5	;RP0=0, select bank0
  2590  16CB  1303               	bcf	3,6	;RP1=0, select bank0
  2591  16CC  1106               	bcf	6,2	;volatile
  2592                           
  2593                           ;./motors.h: 100:     RB3 = 0;
  2594  16CD  1186               	bcf	6,3	;volatile
  2595  16CE                     l211:
  2596  16CE  0008               	return
  2597  16CF                     __end_of_init_fan:
  2598                           
  2599                           	psect	text12
  2600  0AED                     __ptext12:	
  2601 ;; *************** function _humi_warning *****************
  2602 ;; Defined at:
  2603 ;;		line 133 in file "newmain.c"
  2604 ;; Parameters:    Size  Location     Type
  2605 ;;		None
  2606 ;; Auto vars:     Size  Location     Type
  2607 ;;		None
  2608 ;; Return value:  Size  Location     Type
  2609 ;;                  1    wreg      void 
  2610 ;; Registers used:
  2611 ;;		wreg, fsr0l, fsr0h, status,2, status,0, btemp+1, pclath, cstack
  2612 ;; Tracked objects:
  2613 ;;		On entry : 0/0
  2614 ;;		On exit  : 0/0
  2615 ;;		Unchanged: 0/0
  2616 ;; Data sizes:     COMMON   BANK0   BANK1   BANK3   BANK2
  2617 ;;      Params:         0       0       0       0       0
  2618 ;;      Locals:         0       0       0       0       0
  2619 ;;      Temps:          0       3       0       0       0
  2620 ;;      Totals:         0       3       0       0       0
  2621 ;;Total ram usage:        3 bytes
  2622 ;; Hardware stack levels used:    1
  2623 ;; Hardware stack levels required when called:    2
  2624 ;; This function calls:
  2625 ;;		_BT_load_string
  2626 ;;		_broadcast_BT
  2627 ;; This function is called by:
  2628 ;;		_main
  2629 ;; This function uses a non-reentrant model
  2630 ;;
  2631                           
  2632                           
  2633                           ;psect for function _humi_warning
  2634  0AED                     _humi_warning:
  2635  0AED                     l2774:	
  2636                           ;incstack = 0
  2637                           ; Regs used in _humi_warning: [wreg-fsr0h+status,2+status,0+btemp+1+pclath+cstack]
  2638                           
  2639                           
  2640                           ;newmain.c: 134:     if (humidity > 75) {
  2641  0AED  304C               	movlw	76
  2642  0AEE  1283               	bcf	3,5	;RP0=0, select bank0
  2643  0AEF  1303               	bcf	3,6	;RP1=0, select bank0
  2644  0AF0  026D               	subwf	_humidity,w
  2645  0AF1  1C03               	skipc
  2646  0AF2  2AF4               	goto	u3251
  2647  0AF3  2AF5               	goto	u3250
  2648  0AF4                     u3251:
  2649  0AF4  2B13               	goto	l2782
  2650  0AF5                     u3250:
  2651  0AF5                     l2776:
  2652                           
  2653                           ;newmain.c: 135:         BT_load_string("WARNING! do am trong chuong qua CAO!");
  2654  0AF5  30C7               	movlw	low (STR_26| (0+32768))
  2655  0AF6  00FC               	movwf	BT_load_string@string
  2656  0AF7  3088               	movlw	high (STR_26| (0+32768))
  2657  0AF8  00FD               	movwf	BT_load_string@string+1
  2658  0AF9  160A  118A  27DA  120A  158A  	fcall	_BT_load_string
  2659  0AFE                     l2778:
  2660                           
  2661                           ;newmain.c: 136:         broadcast_BT();
  2662  0AFE  160A  118A  2711  120A  158A  	fcall	_broadcast_BT
  2663  0B03                     l2780:
  2664                           
  2665                           ;newmain.c: 137:         _delay((unsigned long)((500)*(20000000/4000.0)));
  2666  0B03  300D               	movlw	13
  2667  0B04  1283               	bcf	3,5	;RP0=0, select bank0
  2668  0B05  1303               	bcf	3,6	;RP1=0, select bank0
  2669  0B06  00A5               	movwf	??_humi_warning+2
  2670  0B07  30AF               	movlw	175
  2671  0B08  00A4               	movwf	??_humi_warning+1
  2672  0B09  30B5               	movlw	181
  2673  0B0A  00A3               	movwf	??_humi_warning
  2674  0B0B                     u3317:
  2675  0B0B  0BA3               	decfsz	??_humi_warning,f
  2676  0B0C  2B0B               	goto	u3317
  2677  0B0D  0BA4               	decfsz	??_humi_warning+1,f
  2678  0B0E  2B0B               	goto	u3317
  2679  0B0F  0BA5               	decfsz	??_humi_warning+2,f
  2680  0B10  2B0B               	goto	u3317
  2681  0B11  2B12               	nop2
  2682                           
  2683                           ;newmain.c: 138:     } else if(humidity < 55) {
  2684  0B12  2B23               	goto	l311
  2685  0B13                     l2782:
  2686  0B13  3037               	movlw	55
  2687  0B14  026D               	subwf	_humidity,w
  2688  0B15  1803               	skipnc
  2689  0B16  2B18               	goto	u3261
  2690  0B17  2B19               	goto	u3260
  2691  0B18                     u3261:
  2692  0B18  2B23               	goto	l311
  2693  0B19                     u3260:
  2694  0B19                     l2784:
  2695                           
  2696                           ;newmain.c: 139:         BT_load_string("WARNING! do am trong chuong qua THAP!");
  2697  0B19  307B               	movlw	low (STR_27| (0+32768))
  2698  0B1A  00FC               	movwf	BT_load_string@string
  2699  0B1B  3088               	movlw	high (STR_27| (0+32768))
  2700  0B1C  00FD               	movwf	BT_load_string@string+1
  2701  0B1D  160A  118A  27DA  120A  158A  	fcall	_BT_load_string
  2702  0B22  2AFE               	goto	l2778
  2703  0B23                     l311:
  2704  0B23  0008               	return
  2705  0B24                     __end_of_humi_warning:
  2706                           
  2707                           	psect	text13
  2708  0D60                     __ptext13:	
  2709 ;; *************** function _control_BT *****************
  2710 ;; Defined at:
  2711 ;;		line 146 in file "newmain.c"
  2712 ;; Parameters:    Size  Location     Type
  2713 ;;		None
  2714 ;; Auto vars:     Size  Location     Type
  2715 ;;		None
  2716 ;; Return value:  Size  Location     Type
  2717 ;;                  1    wreg      void 
  2718 ;; Registers used:
  2719 ;;		wreg, fsr0l, fsr0h, status,2, status,0, btemp+1, pclath, cstack
  2720 ;; Tracked objects:
  2721 ;;		On entry : 0/0
  2722 ;;		On exit  : 0/0
  2723 ;;		Unchanged: 0/0
  2724 ;; Data sizes:     COMMON   BANK0   BANK1   BANK3   BANK2
  2725 ;;      Params:         0       0       0       0       0
  2726 ;;      Locals:         0       0       0       0       0
  2727 ;;      Temps:          0       0       0       0       0
  2728 ;;      Totals:         0       0       0       0       0
  2729 ;;Total ram usage:        0 bytes
  2730 ;; Hardware stack levels used:    1
  2731 ;; Hardware stack levels required when called:    5
  2732 ;; This function calls:
  2733 ;;		_BT_load_string
  2734 ;;		_broadcast_BT
  2735 ;;		_fan_off
  2736 ;;		_fan_on
  2737 ;;		_print_status
  2738 ;;		_runFood
  2739 ;; This function is called by:
  2740 ;;		_main
  2741 ;; This function uses a non-reentrant model
  2742 ;;
  2743                           
  2744                           
  2745                           ;psect for function _control_BT
  2746  0D60                     _control_BT:
  2747  0D60                     l2722:	
  2748                           ;incstack = 0
  2749                           ; Regs used in _control_BT: [wreg-fsr0h+status,2+status,0+btemp+1+pclath+cstack]
  2750                           
  2751                           
  2752                           ;newmain.c: 147:     if (value_control == '1') {
  2753  0D60  3031               	movlw	49
  2754  0D61  1683               	bsf	3,5	;RP0=1, select bank1
  2755  0D62  1303               	bcf	3,6	;RP1=0, select bank1
  2756  0D63  062A               	xorwf	_value_control^(0+128),w
  2757  0D64  042B               	iorwf	(_value_control+1)^(0+128),w
  2758  0D65  1D03               	btfss	3,2
  2759  0D66  2D68               	goto	u3191
  2760  0D67  2D69               	goto	u3190
  2761  0D68                     u3191:
  2762  0D68  2D72               	goto	l2728
  2763  0D69                     u3190:
  2764  0D69                     l2724:
  2765                           
  2766                           ;newmain.c: 148:         print_status();
  2767  0D69  120A  118A  21BF  120A  158A  	fcall	_print_status
  2768  0D6E                     l2726:
  2769                           
  2770                           ;newmain.c: 149:         value_control = 0;
  2771  0D6E  1683               	bsf	3,5	;RP0=1, select bank1
  2772  0D6F  1303               	bcf	3,6	;RP1=0, select bank1
  2773  0D70  01AA               	clrf	_value_control^(0+128)
  2774  0D71  01AB               	clrf	(_value_control+1)^(0+128)
  2775  0D72                     l2728:
  2776                           
  2777                           ;newmain.c: 152:     if (value_control == '2') {
  2778  0D72  3032               	movlw	50
  2779  0D73  062A               	xorwf	_value_control^(0+128),w
  2780  0D74  042B               	iorwf	(_value_control+1)^(0+128),w
  2781  0D75  1D03               	btfss	3,2
  2782  0D76  2D78               	goto	u3201
  2783  0D77  2D79               	goto	u3200
  2784  0D78                     u3201:
  2785  0D78  2D90               	goto	l2738
  2786  0D79                     u3200:
  2787  0D79                     l2730:
  2788                           
  2789                           ;newmain.c: 153:         runFood();
  2790  0D79  160A  118A  274D  120A  158A  	fcall	_runFood
  2791  0D7E                     l2732:
  2792                           
  2793                           ;newmain.c: 154:         value_control = 0;
  2794  0D7E  1683               	bsf	3,5	;RP0=1, select bank1
  2795  0D7F  1303               	bcf	3,6	;RP1=0, select bank1
  2796  0D80  01AA               	clrf	_value_control^(0+128)
  2797  0D81  01AB               	clrf	(_value_control+1)^(0+128)
  2798  0D82                     l2734:
  2799                           
  2800                           ;newmain.c: 155:         BT_load_string("Dang cho an...!");
  2801  0D82  308A               	movlw	low (STR_28| (0+32768))
  2802  0D83  00FC               	movwf	BT_load_string@string
  2803  0D84  3089               	movlw	high (STR_28| (0+32768))
  2804  0D85  00FD               	movwf	BT_load_string@string+1
  2805  0D86  160A  118A  27DA  120A  158A  	fcall	_BT_load_string
  2806  0D8B                     l2736:
  2807                           
  2808                           ;newmain.c: 156:         broadcast_BT();
  2809  0D8B  160A  118A  2711  120A  158A  	fcall	_broadcast_BT
  2810  0D90                     l2738:
  2811                           
  2812                           ;newmain.c: 159:     if (value_control == '3') {
  2813  0D90  3033               	movlw	51
  2814  0D91  1683               	bsf	3,5	;RP0=1, select bank1
  2815  0D92  1303               	bcf	3,6	;RP1=0, select bank1
  2816  0D93  062A               	xorwf	_value_control^(0+128),w
  2817  0D94  042B               	iorwf	(_value_control+1)^(0+128),w
  2818  0D95  1D03               	btfss	3,2
  2819  0D96  2D98               	goto	u3211
  2820  0D97  2D99               	goto	u3210
  2821  0D98                     u3211:
  2822  0D98  2DB0               	goto	l2748
  2823  0D99                     u3210:
  2824  0D99                     l2740:
  2825                           
  2826                           ;newmain.c: 160:         fan_on();
  2827  0D99  160A  118A  26C2  120A  158A  	fcall	_fan_on
  2828  0D9E                     l2742:
  2829                           
  2830                           ;newmain.c: 161:         value_control = 0;
  2831  0D9E  1683               	bsf	3,5	;RP0=1, select bank1
  2832  0D9F  1303               	bcf	3,6	;RP1=0, select bank1
  2833  0DA0  01AA               	clrf	_value_control^(0+128)
  2834  0DA1  01AB               	clrf	(_value_control+1)^(0+128)
  2835  0DA2                     l2744:
  2836                           
  2837                           ;newmain.c: 162:         BT_load_string("Da Bat quat...!");
  2838  0DA2  309A               	movlw	low (STR_29| (0+32768))
  2839  0DA3  00FC               	movwf	BT_load_string@string
  2840  0DA4  3089               	movlw	high (STR_29| (0+32768))
  2841  0DA5  00FD               	movwf	BT_load_string@string+1
  2842  0DA6  160A  118A  27DA  120A  158A  	fcall	_BT_load_string
  2843  0DAB                     l2746:
  2844                           
  2845                           ;newmain.c: 163:         broadcast_BT();
  2846  0DAB  160A  118A  2711  120A  158A  	fcall	_broadcast_BT
  2847  0DB0                     l2748:
  2848                           
  2849                           ;newmain.c: 166:     if (value_control == '4') {
  2850  0DB0  3034               	movlw	52
  2851  0DB1  1683               	bsf	3,5	;RP0=1, select bank1
  2852  0DB2  1303               	bcf	3,6	;RP1=0, select bank1
  2853  0DB3  062A               	xorwf	_value_control^(0+128),w
  2854  0DB4  042B               	iorwf	(_value_control+1)^(0+128),w
  2855  0DB5  1D03               	btfss	3,2
  2856  0DB6  2DB8               	goto	u3221
  2857  0DB7  2DB9               	goto	u3220
  2858  0DB8                     u3221:
  2859  0DB8  2DD0               	goto	l318
  2860  0DB9                     u3220:
  2861  0DB9                     l2750:
  2862                           
  2863                           ;newmain.c: 167:         fan_off();
  2864  0DB9  160A  118A  26BE  120A  158A  	fcall	_fan_off
  2865  0DBE                     l2752:
  2866                           
  2867                           ;newmain.c: 168:         value_control = 0;
  2868  0DBE  1683               	bsf	3,5	;RP0=1, select bank1
  2869  0DBF  1303               	bcf	3,6	;RP1=0, select bank1
  2870  0DC0  01AA               	clrf	_value_control^(0+128)
  2871  0DC1  01AB               	clrf	(_value_control+1)^(0+128)
  2872  0DC2                     l2754:
  2873                           
  2874                           ;newmain.c: 169:         BT_load_string("Da tat quat...!");
  2875  0DC2  30AA               	movlw	low (STR_30| (0+32768))
  2876  0DC3  00FC               	movwf	BT_load_string@string
  2877  0DC4  3089               	movlw	high (STR_30| (0+32768))
  2878  0DC5  00FD               	movwf	BT_load_string@string+1
  2879  0DC6  160A  118A  27DA  120A  158A  	fcall	_BT_load_string
  2880  0DCB                     l2756:
  2881                           
  2882                           ;newmain.c: 170:         broadcast_BT();
  2883  0DCB  160A  118A  2711  120A  158A  	fcall	_broadcast_BT
  2884  0DD0                     l318:
  2885  0DD0  0008               	return
  2886  0DD1                     __end_of_control_BT:
  2887                           
  2888                           	psect	text14
  2889  01BF                     __ptext14:	
  2890 ;; *************** function _print_status *****************
  2891 ;; Defined at:
  2892 ;;		line 92 in file "newmain.c"
  2893 ;; Parameters:    Size  Location     Type
  2894 ;;		None
  2895 ;; Auto vars:     Size  Location     Type
  2896 ;;		None
  2897 ;; Return value:  Size  Location     Type
  2898 ;;                  1    wreg      void 
  2899 ;; Registers used:
  2900 ;;		wreg, fsr0l, fsr0h, status,2, status,0, btemp+1, pclath, cstack
  2901 ;; Tracked objects:
  2902 ;;		On entry : 0/0
  2903 ;;		On exit  : 0/0
  2904 ;;		Unchanged: 0/0
  2905 ;; Data sizes:     COMMON   BANK0   BANK1   BANK3   BANK2
  2906 ;;      Params:         0       0       0       0       0
  2907 ;;      Locals:         0       0       0       0       0
  2908 ;;      Temps:          0       2       0       0       0
  2909 ;;      Totals:         0       2       0       0       0
  2910 ;;Total ram usage:        2 bytes
  2911 ;; Hardware stack levels used:    1
  2912 ;; Hardware stack levels required when called:    4
  2913 ;; This function calls:
  2914 ;;		_BT_load_string
  2915 ;;		_broadcast_BT
  2916 ;;		_getStringData
  2917 ;;		_get_level_food
  2918 ;; This function is called by:
  2919 ;;		_main
  2920 ;;		_control_BT
  2921 ;; This function uses a non-reentrant model
  2922 ;;
  2923                           
  2924                           
  2925                           ;psect for function _print_status
  2926  01BF                     _print_status:
  2927  01BF                     l2492:	
  2928                           ;incstack = 0
  2929                           ; Regs used in _print_status: [wreg-fsr0h+status,2+status,0+btemp+1+pclath+cstack]
  2930                           
  2931                           
  2932                           ;newmain.c: 93:     BT_load_string("Nhiet do hien tai trong chuong: ");
  2933  01BF  30EC               	movlw	low (STR_9| (0+32768))
  2934  01C0  00FC               	movwf	BT_load_string@string
  2935  01C1  3088               	movlw	high (STR_9| (0+32768))
  2936  01C2  00FD               	movwf	BT_load_string@string+1
  2937  01C3  160A  118A  27DA  120A  118A  	fcall	_BT_load_string
  2938                           
  2939                           ;newmain.c: 94:     BT_load_string(getStringData(temp));
  2940  01C8  1283               	bcf	3,5	;RP0=0, select bank0
  2941  01C9  1303               	bcf	3,6	;RP1=0, select bank0
  2942  01CA  086E               	movf	_temp,w
  2943  01CB  120A  158A  2435  120A  118A  	fcall	_getStringData
  2944  01D0  00FC               	movwf	BT_load_string@string
  2945  01D1  3000               	movlw	0
  2946  01D2  00FD               	movwf	BT_load_string@string+1
  2947  01D3  160A  118A  27DA  120A  118A  	fcall	_BT_load_string
  2948                           
  2949                           ;newmain.c: 95:     BT_load_string(" do C");
  2950  01D8  300D               	movlw	low (STR_10| (0+32768))
  2951  01D9  00FC               	movwf	BT_load_string@string
  2952  01DA  308A               	movlw	high (STR_10| (0+32768))
  2953  01DB  00FD               	movwf	BT_load_string@string+1
  2954  01DC  160A  118A  27DA  120A  118A  	fcall	_BT_load_string
  2955  01E1                     l2494:
  2956                           
  2957                           ;newmain.c: 96:     broadcast_BT();
  2958  01E1  160A  118A  2711  120A  118A  	fcall	_broadcast_BT
  2959  01E6                     l2496:
  2960                           
  2961                           ;newmain.c: 97:     BT_load_string("Do am hien tai trong chuong: ");
  2962  01E6  300D               	movlw	low (STR_11| (0+32768))
  2963  01E7  00FC               	movwf	BT_load_string@string
  2964  01E8  3089               	movlw	high (STR_11| (0+32768))
  2965  01E9  00FD               	movwf	BT_load_string@string+1
  2966  01EA  160A  118A  27DA  120A  118A  	fcall	_BT_load_string
  2967  01EF                     l2498:
  2968                           
  2969                           ;newmain.c: 98:     BT_load_string(getStringData(humidity));
  2970  01EF  1283               	bcf	3,5	;RP0=0, select bank0
  2971  01F0  1303               	bcf	3,6	;RP1=0, select bank0
  2972  01F1  086D               	movf	_humidity,w
  2973  01F2  120A  158A  2435  120A  118A  	fcall	_getStringData
  2974  01F7  00FC               	movwf	BT_load_string@string
  2975  01F8  3000               	movlw	0
  2976  01F9  00FD               	movwf	BT_load_string@string+1
  2977  01FA  160A  118A  27DA  120A  118A  	fcall	_BT_load_string
  2978  01FF                     l2500:
  2979                           
  2980                           ;newmain.c: 99:     BT_load_string(" %");
  2981  01FF  3017               	movlw	low (STR_12| (0+32768))
  2982  0200  00FC               	movwf	BT_load_string@string
  2983  0201  308A               	movlw	high (STR_12| (0+32768))
  2984  0202  00FD               	movwf	BT_load_string@string+1
  2985  0203  160A  118A  27DA  120A  118A  	fcall	_BT_load_string
  2986                           
  2987                           ;newmain.c: 100:     broadcast_BT();
  2988  0208  160A  118A  2711  120A  118A  	fcall	_broadcast_BT
  2989  020D                     l2502:
  2990                           
  2991                           ;newmain.c: 101:     BT_load_string("Quat Thong Gio: ");
  2992  020D  3069               	movlw	low (STR_13| (0+32768))
  2993  020E  00FC               	movwf	BT_load_string@string
  2994  020F  3089               	movlw	high (STR_13| (0+32768))
  2995  0210  00FD               	movwf	BT_load_string@string+1
  2996  0211  160A  118A  27DA  120A  118A  	fcall	_BT_load_string
  2997  0216                     l2504:
  2998                           
  2999                           ;newmain.c: 102:     if (RB2 == 1) BT_load_string("ON");
  3000  0216  1283               	bcf	3,5	;RP0=0, select bank0
  3001  0217  1303               	bcf	3,6	;RP1=0, select bank0
  3002  0218  1D06               	btfss	6,2	;volatile
  3003  0219  2A1B               	goto	u3031
  3004  021A  2A1C               	goto	u3030
  3005  021B                     u3031:
  3006  021B  2A26               	goto	l2508
  3007  021C                     u3030:
  3008  021C                     l2506:
  3009  021C  301A               	movlw	low (STR_14| (0+32768))
  3010  021D  00FC               	movwf	BT_load_string@string
  3011  021E  308A               	movlw	high (STR_14| (0+32768))
  3012  021F  00FD               	movwf	BT_load_string@string+1
  3013  0220  160A  118A  27DA  120A  118A  	fcall	_BT_load_string
  3014  0225  2A2F               	goto	l2510
  3015  0226                     l2508:
  3016  0226  3013               	movlw	low (STR_15| (0+32768))
  3017  0227  00FC               	movwf	BT_load_string@string
  3018  0228  308A               	movlw	high (STR_15| (0+32768))
  3019  0229  00FD               	movwf	BT_load_string@string+1
  3020  022A  160A  118A  27DA  120A  118A  	fcall	_BT_load_string
  3021  022F                     l2510:
  3022                           
  3023                           ;newmain.c: 104:     broadcast_BT();
  3024  022F  160A  118A  2711  120A  118A  	fcall	_broadcast_BT
  3025  0234                     l2512:
  3026                           
  3027                           ;newmain.c: 105:     BT_load_string("May bom nuoc: ");
  3028  0234  30BA               	movlw	low (STR_16| (0+32768))
  3029  0235  00FC               	movwf	BT_load_string@string
  3030  0236  3089               	movlw	high (STR_16| (0+32768))
  3031  0237  00FD               	movwf	BT_load_string@string+1
  3032  0238  160A  118A  27DA  120A  118A  	fcall	_BT_load_string
  3033  023D                     l2514:
  3034                           
  3035                           ;newmain.c: 106:     if (RB4 == 0) BT_load_string("ON");
  3036  023D  1283               	bcf	3,5	;RP0=0, select bank0
  3037  023E  1303               	bcf	3,6	;RP1=0, select bank0
  3038  023F  1A06               	btfsc	6,4	;volatile
  3039  0240  2A42               	goto	u3041
  3040  0241  2A43               	goto	u3040
  3041  0242                     u3041:
  3042  0242  2A4D               	goto	l2518
  3043  0243                     u3040:
  3044  0243                     l2516:
  3045  0243  301A               	movlw	low (STR_14| (0+32768))
  3046  0244  00FC               	movwf	BT_load_string@string
  3047  0245  308A               	movlw	high (STR_14| (0+32768))
  3048  0246  00FD               	movwf	BT_load_string@string+1
  3049  0247  160A  118A  27DA  120A  118A  	fcall	_BT_load_string
  3050  024C  2A56               	goto	l2520
  3051  024D                     l2518:
  3052  024D  3013               	movlw	low (STR_15| (0+32768))
  3053  024E  00FC               	movwf	BT_load_string@string
  3054  024F  308A               	movlw	high (STR_15| (0+32768))
  3055  0250  00FD               	movwf	BT_load_string@string+1
  3056  0251  160A  118A  27DA  120A  118A  	fcall	_BT_load_string
  3057  0256                     l2520:
  3058                           
  3059                           ;newmain.c: 108:     broadcast_BT();
  3060  0256  160A  118A  2711  120A  118A  	fcall	_broadcast_BT
  3061  025B                     l2522:
  3062                           
  3063                           ;newmain.c: 109:     BT_load_string("Luong thuc an: ");
  3064  025B  307A               	movlw	low (STR_19| (0+32768))
  3065  025C  00FC               	movwf	BT_load_string@string
  3066  025D  3089               	movlw	high (STR_19| (0+32768))
  3067  025E  00FD               	movwf	BT_load_string@string+1
  3068  025F  160A  118A  27DA  120A  118A  	fcall	_BT_load_string
  3069                           
  3070                           ;newmain.c: 110:     switch(get_level_food()) {
  3071  0264  2A8D               	goto	l2532
  3072  0265                     l2524:
  3073  0265  30F8               	movlw	low (STR_20| (0+32768))
  3074  0266  00FC               	movwf	BT_load_string@string
  3075  0267  3089               	movlw	high (STR_20| (0+32768))
  3076  0268  00FD               	movwf	BT_load_string@string+1
  3077  0269  160A  118A  27DA  120A  118A  	fcall	_BT_load_string
  3078  026E  2AA6               	goto	l2534
  3079  026F                     l2526:
  3080  026F  30FF               	movlw	low (STR_21| (0+32768))
  3081  0270  00FC               	movwf	BT_load_string@string
  3082  0271  3089               	movlw	high (STR_21| (0+32768))
  3083  0272  00FD               	movwf	BT_load_string@string+1
  3084  0273  160A  118A  27DA  120A  118A  	fcall	_BT_load_string
  3085  0278  2AA6               	goto	l2534
  3086  0279                     l2528:
  3087  0279  30E4               	movlw	low (STR_22| (0+32768))
  3088  027A  00FC               	movwf	BT_load_string@string
  3089  027B  3089               	movlw	high (STR_22| (0+32768))
  3090  027C  00FD               	movwf	BT_load_string@string+1
  3091  027D  160A  118A  27DA  120A  118A  	fcall	_BT_load_string
  3092  0282  2AA6               	goto	l2534
  3093  0283                     l2530:
  3094  0283  3006               	movlw	low (STR_23| (0+32768))
  3095  0284  00FC               	movwf	BT_load_string@string
  3096  0285  308A               	movlw	high (STR_23| (0+32768))
  3097  0286  00FD               	movwf	BT_load_string@string+1
  3098  0287  160A  118A  27DA  120A  118A  	fcall	_BT_load_string
  3099                           
  3100                           ;newmain.c: 115:     }
  3101  028C  2AA6               	goto	l2534
  3102  028D                     l2532:
  3103  028D  160A  118A  27B5  120A  118A  	fcall	_get_level_food
  3104  0292  1283               	bcf	3,5	;RP0=0, select bank0
  3105  0293  1303               	bcf	3,6	;RP1=0, select bank0
  3106  0294  00E8               	movwf	??_print_status
  3107  0295  01E9               	clrf	??_print_status+1
  3108                           
  3109                           ; Switch on 2 bytes has been partitioned into a top level switch of size 1, and 1 sub-sw
      +                          itches
  3110                           ; Switch size 1, requested type "simple"
  3111                           ; Number of cases is 1, Range of values is 0 to 0
  3112                           ; switch strategies available:
  3113                           ; Name         Instructions Cycles
  3114                           ; simple_byte            4     3 (average)
  3115                           ; direct_byte           11     8 (fixed)
  3116                           ; jumptable            260     6 (fixed)
  3117                           ;	Chosen strategy is simple_byte
  3118  0296  0869               	movf	??_print_status+1,w
  3119  0297  3A00               	xorlw	0	; case 0
  3120  0298  1903               	skipnz
  3121  0299  2A9B               	goto	l2866
  3122  029A  2A83               	goto	l2530
  3123  029B                     l2866:
  3124                           
  3125                           ; Switch size 1, requested type "simple"
  3126                           ; Number of cases is 3, Range of values is 1 to 3
  3127                           ; switch strategies available:
  3128                           ; Name         Instructions Cycles
  3129                           ; simple_byte           10     6 (average)
  3130                           ; direct_byte           20    11 (fixed)
  3131                           ; jumptable            263     9 (fixed)
  3132                           ;	Chosen strategy is simple_byte
  3133  029B  0868               	movf	??_print_status,w
  3134  029C  3A01               	xorlw	1	; case 1
  3135  029D  1903               	skipnz
  3136  029E  2A65               	goto	l2524
  3137  029F  3A03               	xorlw	3	; case 2
  3138  02A0  1903               	skipnz
  3139  02A1  2A6F               	goto	l2526
  3140  02A2  3A01               	xorlw	1	; case 3
  3141  02A3  1903               	skipnz
  3142  02A4  2A79               	goto	l2528
  3143  02A5  2A83               	goto	l2530
  3144  02A6                     l2534:
  3145                           
  3146                           ;newmain.c: 116:     broadcast_BT();
  3147  02A6  160A  118A  2711  120A  118A  	fcall	_broadcast_BT
  3148  02AB                     l299:
  3149  02AB  0008               	return
  3150  02AC                     __end_of_print_status:
  3151                           
  3152                           	psect	text15
  3153  17B5                     __ptext15:	
  3154 ;; *************** function _get_level_food *****************
  3155 ;; Defined at:
  3156 ;;		line 65 in file "./motors.h"
  3157 ;; Parameters:    Size  Location     Type
  3158 ;;		None
  3159 ;; Auto vars:     Size  Location     Type
  3160 ;;  d               1   71[BANK0 ] unsigned char 
  3161 ;; Return value:  Size  Location     Type
  3162 ;;                  1    wreg      unsigned char 
  3163 ;; Registers used:
  3164 ;;		wreg, status,2, status,0, btemp+1, pclath, cstack
  3165 ;; Tracked objects:
  3166 ;;		On entry : 0/0
  3167 ;;		On exit  : 0/0
  3168 ;;		Unchanged: 0/0
  3169 ;; Data sizes:     COMMON   BANK0   BANK1   BANK3   BANK2
  3170 ;;      Params:         0       0       0       0       0
  3171 ;;      Locals:         0       1       0       0       0
  3172 ;;      Temps:          0       1       0       0       0
  3173 ;;      Totals:         0       2       0       0       0
  3174 ;;Total ram usage:        2 bytes
  3175 ;; Hardware stack levels used:    1
  3176 ;; Hardware stack levels required when called:    3
  3177 ;; This function calls:
  3178 ;;		_distance
  3179 ;; This function is called by:
  3180 ;;		_print_status
  3181 ;; This function uses a non-reentrant model
  3182 ;;
  3183                           
  3184                           
  3185                           ;psect for function _get_level_food
  3186  17B5                     _get_level_food:
  3187  17B5                     l2416:	
  3188                           ;incstack = 0
  3189                           ; Regs used in _get_level_food: [wreg+status,2+status,0+btemp+1+pclath+cstack]
  3190                           
  3191                           
  3192                           ;./motors.h: 66:     uint8_t d = distance();
  3193  17B5  120A  118A  2052  160A  118A  	fcall	_distance
  3194  17BA  1283               	bcf	3,5	;RP0=0, select bank0
  3195  17BB  1303               	bcf	3,6	;RP1=0, select bank0
  3196  17BC  085F               	movf	?_distance,w
  3197  17BD  00E6               	movwf	??_get_level_food
  3198  17BE  0866               	movf	??_get_level_food,w
  3199  17BF  00E7               	movwf	get_level_food@d
  3200  17C0                     l2418:
  3201                           
  3202                           ;./motors.h: 67:     if (d > 10) return 1;
  3203  17C0  300B               	movlw	11
  3204  17C1  0267               	subwf	get_level_food@d,w
  3205  17C2  1C03               	skipc
  3206  17C3  2FC5               	goto	u2941
  3207  17C4  2FC6               	goto	u2940
  3208  17C5                     u2941:
  3209  17C5  2FC8               	goto	l2424
  3210  17C6                     u2940:
  3211  17C6                     l2420:
  3212  17C6  3001               	movlw	1
  3213  17C7  2FD9               	goto	l198
  3214  17C8                     l2424:
  3215                           
  3216                           ;./motors.h: 68:     if (d >=8) return 2;
  3217  17C8  3008               	movlw	8
  3218  17C9  0267               	subwf	get_level_food@d,w
  3219  17CA  1C03               	skipc
  3220  17CB  2FCD               	goto	u2951
  3221  17CC  2FCE               	goto	u2950
  3222  17CD                     u2951:
  3223  17CD  2FD0               	goto	l2430
  3224  17CE                     u2950:
  3225  17CE                     l2426:
  3226  17CE  3002               	movlw	2
  3227  17CF  2FD9               	goto	l198
  3228  17D0                     l2430:
  3229                           
  3230                           ;./motors.h: 69:     if (d > 6) return 3;
  3231  17D0  3007               	movlw	7
  3232  17D1  0267               	subwf	get_level_food@d,w
  3233  17D2  1C03               	skipc
  3234  17D3  2FD5               	goto	u2961
  3235  17D4  2FD6               	goto	u2960
  3236  17D5                     u2961:
  3237  17D5  2FD8               	goto	l2436
  3238  17D6                     u2960:
  3239  17D6                     l2432:
  3240  17D6  3003               	movlw	3
  3241  17D7  2FD9               	goto	l198
  3242  17D8                     l2436:
  3243                           
  3244                           ;./motors.h: 70:     return 0;
  3245  17D8  3000               	movlw	0
  3246  17D9                     l198:
  3247  17D9  0008               	return
  3248  17DA                     __end_of_get_level_food:
  3249                           
  3250                           	psect	text16
  3251  0C35                     __ptext16:	
  3252 ;; *************** function _getStringData *****************
  3253 ;; Defined at:
  3254 ;;		line 72 in file "./_DHT11.h"
  3255 ;; Parameters:    Size  Location     Type
  3256 ;;  num             1    wreg     unsigned char 
  3257 ;; Auto vars:     Size  Location     Type
  3258 ;;  num             1    2[BANK0 ] unsigned char 
  3259 ;;  buff            2    0[BANK0 ] unsigned char [2]
  3260 ;; Return value:  Size  Location     Type
  3261 ;;                  1    wreg      PTR unsigned char 
  3262 ;; Registers used:
  3263 ;;		wreg, status,2, status,0, pclath, cstack
  3264 ;; Tracked objects:
  3265 ;;		On entry : 0/0
  3266 ;;		On exit  : 0/0
  3267 ;;		Unchanged: 0/0
  3268 ;; Data sizes:     COMMON   BANK0   BANK1   BANK3   BANK2
  3269 ;;      Params:         0       0       0       0       0
  3270 ;;      Locals:         0       3       0       0       0
  3271 ;;      Temps:          3       0       0       0       0
  3272 ;;      Totals:         3       3       0       0       0
  3273 ;;Total ram usage:        6 bytes
  3274 ;; Hardware stack levels used:    1
  3275 ;; Hardware stack levels required when called:    1
  3276 ;; This function calls:
  3277 ;;		___awdiv
  3278 ;;		___awmod
  3279 ;; This function is called by:
  3280 ;;		_print_status
  3281 ;; This function uses a non-reentrant model
  3282 ;;
  3283                           
  3284                           
  3285                           ;psect for function _getStringData
  3286  0C35                     _getStringData:
  3287                           
  3288                           ;incstack = 0
  3289                           ; Regs used in _getStringData: [wreg+status,2+status,0+pclath+cstack]
  3290                           ;getStringData@num stored from wreg
  3291  0C35  1283               	bcf	3,5	;RP0=0, select bank0
  3292  0C36  1303               	bcf	3,6	;RP1=0, select bank0
  3293  0C37  00A2               	movwf	getStringData@num
  3294  0C38                     l2382:
  3295                           
  3296                           ;./_DHT11.h: 73:     char buff[2];;./_DHT11.h: 74:     buff[1] = num % 10 + 48;
  3297  0C38  300A               	movlw	10
  3298  0C39  00F0               	movwf	___awmod@divisor
  3299  0C3A  3000               	movlw	0
  3300  0C3B  00F1               	movwf	___awmod@divisor+1
  3301  0C3C  0822               	movf	getStringData@num,w
  3302  0C3D  00F9               	movwf	??_getStringData
  3303  0C3E  01FA               	clrf	??_getStringData+1
  3304  0C3F  0879               	movf	??_getStringData,w
  3305  0C40  00F2               	movwf	___awmod@dividend
  3306  0C41  087A               	movf	??_getStringData+1,w
  3307  0C42  00F3               	movwf	___awmod@dividend+1
  3308  0C43  120A  158A  23DC  120A  158A  	fcall	___awmod
  3309  0C48  0870               	movf	?___awmod,w
  3310  0C49  3E30               	addlw	48
  3311  0C4A  00FB               	movwf	??_getStringData+2
  3312  0C4B  087B               	movf	??_getStringData+2,w
  3313  0C4C  1283               	bcf	3,5	;RP0=0, select bank0
  3314  0C4D  1303               	bcf	3,6	;RP1=0, select bank0
  3315  0C4E  00A1               	movwf	getStringData@buff+1
  3316                           
  3317                           ;./_DHT11.h: 75:     num = num / 10;
  3318  0C4F  300A               	movlw	10
  3319  0C50  00F0               	movwf	___awdiv@divisor
  3320  0C51  3000               	movlw	0
  3321  0C52  00F1               	movwf	___awdiv@divisor+1
  3322  0C53  0822               	movf	getStringData@num,w
  3323  0C54  00F9               	movwf	??_getStringData
  3324  0C55  01FA               	clrf	??_getStringData+1
  3325  0C56  0879               	movf	??_getStringData,w
  3326  0C57  00F2               	movwf	___awdiv@dividend
  3327  0C58  087A               	movf	??_getStringData+1,w
  3328  0C59  00F3               	movwf	___awdiv@dividend+1
  3329  0C5A  120A  158A  24F9  120A  158A  	fcall	___awdiv
  3330  0C5F  0870               	movf	?___awdiv,w
  3331  0C60  00FB               	movwf	??_getStringData+2
  3332  0C61  087B               	movf	??_getStringData+2,w
  3333  0C62  1283               	bcf	3,5	;RP0=0, select bank0
  3334  0C63  1303               	bcf	3,6	;RP1=0, select bank0
  3335  0C64  00A2               	movwf	getStringData@num
  3336                           
  3337                           ;./_DHT11.h: 76:     buff[0] = num % 10 + 48;
  3338  0C65  300A               	movlw	10
  3339  0C66  00F0               	movwf	___awmod@divisor
  3340  0C67  3000               	movlw	0
  3341  0C68  00F1               	movwf	___awmod@divisor+1
  3342  0C69  0822               	movf	getStringData@num,w
  3343  0C6A  00F9               	movwf	??_getStringData
  3344  0C6B  01FA               	clrf	??_getStringData+1
  3345  0C6C  0879               	movf	??_getStringData,w
  3346  0C6D  00F2               	movwf	___awmod@dividend
  3347  0C6E  087A               	movf	??_getStringData+1,w
  3348  0C6F  00F3               	movwf	___awmod@dividend+1
  3349  0C70  120A  158A  23DC  120A  158A  	fcall	___awmod
  3350  0C75  0870               	movf	?___awmod,w
  3351  0C76  3E30               	addlw	48
  3352  0C77  00FB               	movwf	??_getStringData+2
  3353  0C78  087B               	movf	??_getStringData+2,w
  3354  0C79  1283               	bcf	3,5	;RP0=0, select bank0
  3355  0C7A  1303               	bcf	3,6	;RP1=0, select bank0
  3356  0C7B  00A0               	movwf	getStringData@buff
  3357                           
  3358                           ;./_DHT11.h: 77:     num = num / 10;
  3359  0C7C  300A               	movlw	10
  3360  0C7D  00F0               	movwf	___awdiv@divisor
  3361  0C7E  3000               	movlw	0
  3362  0C7F  00F1               	movwf	___awdiv@divisor+1
  3363  0C80  0822               	movf	getStringData@num,w
  3364  0C81  00F9               	movwf	??_getStringData
  3365  0C82  01FA               	clrf	??_getStringData+1
  3366  0C83  0879               	movf	??_getStringData,w
  3367  0C84  00F2               	movwf	___awdiv@dividend
  3368  0C85  087A               	movf	??_getStringData+1,w
  3369  0C86  00F3               	movwf	___awdiv@dividend+1
  3370  0C87  120A  158A  24F9  120A  158A  	fcall	___awdiv
  3371  0C8C  0870               	movf	?___awdiv,w
  3372  0C8D  00FB               	movwf	??_getStringData+2
  3373  0C8E  087B               	movf	??_getStringData+2,w
  3374  0C8F  1283               	bcf	3,5	;RP0=0, select bank0
  3375  0C90  1303               	bcf	3,6	;RP1=0, select bank0
  3376  0C91  00A2               	movwf	getStringData@num
  3377  0C92                     l2384:
  3378                           
  3379                           ;./_DHT11.h: 78:     buff[2] = '\0';
  3380  0C92  01A2               	clrf	getStringData@buff+2
  3381  0C93                     l2386:
  3382                           
  3383                           ;./_DHT11.h: 79:     return buff;
  3384  0C93  3020               	movlw	(low (getStringData@buff| 0))& (0+255)
  3385  0C94                     l161:
  3386  0C94  0008               	return
  3387  0C95                     __end_of_getStringData:
  3388                           
  3389                           	psect	text17
  3390  0BDC                     __ptext17:	
  3391 ;; *************** function ___awmod *****************
  3392 ;; Defined at:
  3393 ;;		line 5 in file "C:\Program Files\Microchip\xc8\v2.30\pic\sources\c90\common\awmod.c"
  3394 ;; Parameters:    Size  Location     Type
  3395 ;;  divisor         2    0[COMMON] int 
  3396 ;;  dividend        2    2[COMMON] int 
  3397 ;; Auto vars:     Size  Location     Type
  3398 ;;  sign            1    6[COMMON] unsigned char 
  3399 ;;  counter         1    5[COMMON] unsigned char 
  3400 ;; Return value:  Size  Location     Type
  3401 ;;                  2    0[COMMON] int 
  3402 ;; Registers used:
  3403 ;;		wreg, status,2, status,0
  3404 ;; Tracked objects:
  3405 ;;		On entry : 0/0
  3406 ;;		On exit  : 0/0
  3407 ;;		Unchanged: 0/0
  3408 ;; Data sizes:     COMMON   BANK0   BANK1   BANK3   BANK2
  3409 ;;      Params:         4       0       0       0       0
  3410 ;;      Locals:         2       0       0       0       0
  3411 ;;      Temps:          1       0       0       0       0
  3412 ;;      Totals:         7       0       0       0       0
  3413 ;;Total ram usage:        7 bytes
  3414 ;; Hardware stack levels used:    1
  3415 ;; This function calls:
  3416 ;;		Nothing
  3417 ;; This function is called by:
  3418 ;;		_getStringData
  3419 ;;		_print_Temp_Humi_LCD
  3420 ;; This function uses a non-reentrant model
  3421 ;;
  3422                           
  3423                           
  3424                           ;psect for function ___awmod
  3425  0BDC                     ___awmod:
  3426  0BDC                     l2342:	
  3427                           ;incstack = 0
  3428                           ; Regs used in ___awmod: [wreg+status,2+status,0]
  3429                           
  3430  0BDC  01F6               	clrf	___awmod@sign
  3431  0BDD                     l2344:
  3432  0BDD  1FF3               	btfss	___awmod@dividend+1,7
  3433  0BDE  2BE0               	goto	u2831
  3434  0BDF  2BE1               	goto	u2830
  3435  0BE0                     u2831:
  3436  0BE0  2BE8               	goto	l2350
  3437  0BE1                     u2830:
  3438  0BE1                     l2346:
  3439  0BE1  09F2               	comf	___awmod@dividend,f
  3440  0BE2  09F3               	comf	___awmod@dividend+1,f
  3441  0BE3  0AF2               	incf	___awmod@dividend,f
  3442  0BE4  1903               	skipnz
  3443  0BE5  0AF3               	incf	___awmod@dividend+1,f
  3444  0BE6                     l2348:
  3445  0BE6  01F6               	clrf	___awmod@sign
  3446  0BE7  0AF6               	incf	___awmod@sign,f
  3447  0BE8                     l2350:
  3448  0BE8  1FF1               	btfss	___awmod@divisor+1,7
  3449  0BE9  2BEB               	goto	u2841
  3450  0BEA  2BEC               	goto	u2840
  3451  0BEB                     u2841:
  3452  0BEB  2BF1               	goto	l2354
  3453  0BEC                     u2840:
  3454  0BEC                     l2352:
  3455  0BEC  09F0               	comf	___awmod@divisor,f
  3456  0BED  09F1               	comf	___awmod@divisor+1,f
  3457  0BEE  0AF0               	incf	___awmod@divisor,f
  3458  0BEF  1903               	skipnz
  3459  0BF0  0AF1               	incf	___awmod@divisor+1,f
  3460  0BF1                     l2354:
  3461  0BF1  0870               	movf	___awmod@divisor,w
  3462  0BF2  0471               	iorwf	___awmod@divisor+1,w
  3463  0BF3  1903               	btfsc	3,2
  3464  0BF4  2BF6               	goto	u2851
  3465  0BF5  2BF7               	goto	u2850
  3466  0BF6                     u2851:
  3467  0BF6  2C26               	goto	l2372
  3468  0BF7                     u2850:
  3469  0BF7                     l2356:
  3470  0BF7  01F5               	clrf	___awmod@counter
  3471  0BF8  0AF5               	incf	___awmod@counter,f
  3472  0BF9  2C05               	goto	l2362
  3473  0BFA                     l2358:
  3474  0BFA  3001               	movlw	1
  3475  0BFB                     u2865:
  3476  0BFB  1003               	clrc
  3477  0BFC  0DF0               	rlf	___awmod@divisor,f
  3478  0BFD  0DF1               	rlf	___awmod@divisor+1,f
  3479  0BFE  3EFF               	addlw	-1
  3480  0BFF  1D03               	skipz
  3481  0C00  2BFB               	goto	u2865
  3482  0C01                     l2360:
  3483  0C01  3001               	movlw	1
  3484  0C02  00F4               	movwf	??___awmod
  3485  0C03  0874               	movf	??___awmod,w
  3486  0C04  07F5               	addwf	___awmod@counter,f
  3487  0C05                     l2362:
  3488  0C05  1FF1               	btfss	___awmod@divisor+1,7
  3489  0C06  2C08               	goto	u2871
  3490  0C07  2C09               	goto	u2870
  3491  0C08                     u2871:
  3492  0C08  2BFA               	goto	l2358
  3493  0C09                     u2870:
  3494  0C09                     l2364:
  3495  0C09  0871               	movf	___awmod@divisor+1,w
  3496  0C0A  0273               	subwf	___awmod@dividend+1,w
  3497  0C0B  1D03               	skipz
  3498  0C0C  2C0F               	goto	u2885
  3499  0C0D  0870               	movf	___awmod@divisor,w
  3500  0C0E  0272               	subwf	___awmod@dividend,w
  3501  0C0F                     u2885:
  3502  0C0F  1C03               	skipc
  3503  0C10  2C12               	goto	u2881
  3504  0C11  2C13               	goto	u2880
  3505  0C12                     u2881:
  3506  0C12  2C19               	goto	l2368
  3507  0C13                     u2880:
  3508  0C13                     l2366:
  3509  0C13  0870               	movf	___awmod@divisor,w
  3510  0C14  02F2               	subwf	___awmod@dividend,f
  3511  0C15  0871               	movf	___awmod@divisor+1,w
  3512  0C16  1C03               	skipc
  3513  0C17  03F3               	decf	___awmod@dividend+1,f
  3514  0C18  02F3               	subwf	___awmod@dividend+1,f
  3515  0C19                     l2368:
  3516  0C19  3001               	movlw	1
  3517  0C1A                     u2895:
  3518  0C1A  1003               	clrc
  3519  0C1B  0CF1               	rrf	___awmod@divisor+1,f
  3520  0C1C  0CF0               	rrf	___awmod@divisor,f
  3521  0C1D  3EFF               	addlw	-1
  3522  0C1E  1D03               	skipz
  3523  0C1F  2C1A               	goto	u2895
  3524  0C20                     l2370:
  3525  0C20  3001               	movlw	1
  3526  0C21  02F5               	subwf	___awmod@counter,f
  3527  0C22  1D03               	btfss	3,2
  3528  0C23  2C25               	goto	u2901
  3529  0C24  2C26               	goto	u2900
  3530  0C25                     u2901:
  3531  0C25  2C09               	goto	l2364
  3532  0C26                     u2900:
  3533  0C26                     l2372:
  3534  0C26  0876               	movf	___awmod@sign,w
  3535  0C27  1903               	btfsc	3,2
  3536  0C28  2C2A               	goto	u2911
  3537  0C29  2C2B               	goto	u2910
  3538  0C2A                     u2911:
  3539  0C2A  2C30               	goto	l2376
  3540  0C2B                     u2910:
  3541  0C2B                     l2374:
  3542  0C2B  09F2               	comf	___awmod@dividend,f
  3543  0C2C  09F3               	comf	___awmod@dividend+1,f
  3544  0C2D  0AF2               	incf	___awmod@dividend,f
  3545  0C2E  1903               	skipnz
  3546  0C2F  0AF3               	incf	___awmod@dividend+1,f
  3547  0C30                     l2376:
  3548  0C30  0873               	movf	___awmod@dividend+1,w
  3549  0C31  00F1               	movwf	?___awmod+1
  3550  0C32  0872               	movf	___awmod@dividend,w
  3551  0C33  00F0               	movwf	?___awmod
  3552  0C34                     l570:
  3553  0C34  0008               	return
  3554  0C35                     __end_of___awmod:
  3555                           
  3556                           	psect	text18
  3557  0CF9                     __ptext18:	
  3558 ;; *************** function ___awdiv *****************
  3559 ;; Defined at:
  3560 ;;		line 5 in file "C:\Program Files\Microchip\xc8\v2.30\pic\sources\c90\common\awdiv.c"
  3561 ;; Parameters:    Size  Location     Type
  3562 ;;  divisor         2    0[COMMON] int 
  3563 ;;  dividend        2    2[COMMON] int 
  3564 ;; Auto vars:     Size  Location     Type
  3565 ;;  quotient        2    7[COMMON] int 
  3566 ;;  sign            1    6[COMMON] unsigned char 
  3567 ;;  counter         1    5[COMMON] unsigned char 
  3568 ;; Return value:  Size  Location     Type
  3569 ;;                  2    0[COMMON] int 
  3570 ;; Registers used:
  3571 ;;		wreg, status,2, status,0
  3572 ;; Tracked objects:
  3573 ;;		On entry : 0/0
  3574 ;;		On exit  : 0/0
  3575 ;;		Unchanged: 0/0
  3576 ;; Data sizes:     COMMON   BANK0   BANK1   BANK3   BANK2
  3577 ;;      Params:         4       0       0       0       0
  3578 ;;      Locals:         4       0       0       0       0
  3579 ;;      Temps:          1       0       0       0       0
  3580 ;;      Totals:         9       0       0       0       0
  3581 ;;Total ram usage:        9 bytes
  3582 ;; Hardware stack levels used:    1
  3583 ;; This function calls:
  3584 ;;		Nothing
  3585 ;; This function is called by:
  3586 ;;		_getStringData
  3587 ;;		_print_Temp_Humi_LCD
  3588 ;; This function uses a non-reentrant model
  3589 ;;
  3590                           
  3591                           
  3592                           ;psect for function ___awdiv
  3593  0CF9                     ___awdiv:
  3594  0CF9                     l2298:	
  3595                           ;incstack = 0
  3596                           ; Regs used in ___awdiv: [wreg+status,2+status,0]
  3597                           
  3598  0CF9  01F6               	clrf	___awdiv@sign
  3599  0CFA                     l2300:
  3600  0CFA  1FF1               	btfss	___awdiv@divisor+1,7
  3601  0CFB  2CFD               	goto	u2731
  3602  0CFC  2CFE               	goto	u2730
  3603  0CFD                     u2731:
  3604  0CFD  2D05               	goto	l2306
  3605  0CFE                     u2730:
  3606  0CFE                     l2302:
  3607  0CFE  09F0               	comf	___awdiv@divisor,f
  3608  0CFF  09F1               	comf	___awdiv@divisor+1,f
  3609  0D00  0AF0               	incf	___awdiv@divisor,f
  3610  0D01  1903               	skipnz
  3611  0D02  0AF1               	incf	___awdiv@divisor+1,f
  3612  0D03                     l2304:
  3613  0D03  01F6               	clrf	___awdiv@sign
  3614  0D04  0AF6               	incf	___awdiv@sign,f
  3615  0D05                     l2306:
  3616  0D05  1FF3               	btfss	___awdiv@dividend+1,7
  3617  0D06  2D08               	goto	u2741
  3618  0D07  2D09               	goto	u2740
  3619  0D08                     u2741:
  3620  0D08  2D12               	goto	l2312
  3621  0D09                     u2740:
  3622  0D09                     l2308:
  3623  0D09  09F2               	comf	___awdiv@dividend,f
  3624  0D0A  09F3               	comf	___awdiv@dividend+1,f
  3625  0D0B  0AF2               	incf	___awdiv@dividend,f
  3626  0D0C  1903               	skipnz
  3627  0D0D  0AF3               	incf	___awdiv@dividend+1,f
  3628  0D0E                     l2310:
  3629  0D0E  3001               	movlw	1
  3630  0D0F  00F4               	movwf	??___awdiv
  3631  0D10  0874               	movf	??___awdiv,w
  3632  0D11  06F6               	xorwf	___awdiv@sign,f
  3633  0D12                     l2312:
  3634  0D12  01F7               	clrf	___awdiv@quotient
  3635  0D13  01F8               	clrf	___awdiv@quotient+1
  3636  0D14                     l2314:
  3637  0D14  0870               	movf	___awdiv@divisor,w
  3638  0D15  0471               	iorwf	___awdiv@divisor+1,w
  3639  0D16  1903               	btfsc	3,2
  3640  0D17  2D19               	goto	u2751
  3641  0D18  2D1A               	goto	u2750
  3642  0D19                     u2751:
  3643  0D19  2D51               	goto	l2334
  3644  0D1A                     u2750:
  3645  0D1A                     l2316:
  3646  0D1A  01F5               	clrf	___awdiv@counter
  3647  0D1B  0AF5               	incf	___awdiv@counter,f
  3648  0D1C  2D28               	goto	l2322
  3649  0D1D                     l2318:
  3650  0D1D  3001               	movlw	1
  3651  0D1E                     u2765:
  3652  0D1E  1003               	clrc
  3653  0D1F  0DF0               	rlf	___awdiv@divisor,f
  3654  0D20  0DF1               	rlf	___awdiv@divisor+1,f
  3655  0D21  3EFF               	addlw	-1
  3656  0D22  1D03               	skipz
  3657  0D23  2D1E               	goto	u2765
  3658  0D24                     l2320:
  3659  0D24  3001               	movlw	1
  3660  0D25  00F4               	movwf	??___awdiv
  3661  0D26  0874               	movf	??___awdiv,w
  3662  0D27  07F5               	addwf	___awdiv@counter,f
  3663  0D28                     l2322:
  3664  0D28  1FF1               	btfss	___awdiv@divisor+1,7
  3665  0D29  2D2B               	goto	u2771
  3666  0D2A  2D2C               	goto	u2770
  3667  0D2B                     u2771:
  3668  0D2B  2D1D               	goto	l2318
  3669  0D2C                     u2770:
  3670  0D2C                     l2324:
  3671  0D2C  3001               	movlw	1
  3672  0D2D                     u2785:
  3673  0D2D  1003               	clrc
  3674  0D2E  0DF7               	rlf	___awdiv@quotient,f
  3675  0D2F  0DF8               	rlf	___awdiv@quotient+1,f
  3676  0D30  3EFF               	addlw	-1
  3677  0D31  1D03               	skipz
  3678  0D32  2D2D               	goto	u2785
  3679  0D33  0871               	movf	___awdiv@divisor+1,w
  3680  0D34  0273               	subwf	___awdiv@dividend+1,w
  3681  0D35  1D03               	skipz
  3682  0D36  2D39               	goto	u2795
  3683  0D37  0870               	movf	___awdiv@divisor,w
  3684  0D38  0272               	subwf	___awdiv@dividend,w
  3685  0D39                     u2795:
  3686  0D39  1C03               	skipc
  3687  0D3A  2D3C               	goto	u2791
  3688  0D3B  2D3D               	goto	u2790
  3689  0D3C                     u2791:
  3690  0D3C  2D44               	goto	l2330
  3691  0D3D                     u2790:
  3692  0D3D                     l2326:
  3693  0D3D  0870               	movf	___awdiv@divisor,w
  3694  0D3E  02F2               	subwf	___awdiv@dividend,f
  3695  0D3F  0871               	movf	___awdiv@divisor+1,w
  3696  0D40  1C03               	skipc
  3697  0D41  03F3               	decf	___awdiv@dividend+1,f
  3698  0D42  02F3               	subwf	___awdiv@dividend+1,f
  3699  0D43                     l2328:
  3700  0D43  1477               	bsf	___awdiv@quotient,0
  3701  0D44                     l2330:
  3702  0D44  3001               	movlw	1
  3703  0D45                     u2805:
  3704  0D45  1003               	clrc
  3705  0D46  0CF1               	rrf	___awdiv@divisor+1,f
  3706  0D47  0CF0               	rrf	___awdiv@divisor,f
  3707  0D48  3EFF               	addlw	-1
  3708  0D49  1D03               	skipz
  3709  0D4A  2D45               	goto	u2805
  3710  0D4B                     l2332:
  3711  0D4B  3001               	movlw	1
  3712  0D4C  02F5               	subwf	___awdiv@counter,f
  3713  0D4D  1D03               	btfss	3,2
  3714  0D4E  2D50               	goto	u2811
  3715  0D4F  2D51               	goto	u2810
  3716  0D50                     u2811:
  3717  0D50  2D2C               	goto	l2324
  3718  0D51                     u2810:
  3719  0D51                     l2334:
  3720  0D51  0876               	movf	___awdiv@sign,w
  3721  0D52  1903               	btfsc	3,2
  3722  0D53  2D55               	goto	u2821
  3723  0D54  2D56               	goto	u2820
  3724  0D55                     u2821:
  3725  0D55  2D5B               	goto	l2338
  3726  0D56                     u2820:
  3727  0D56                     l2336:
  3728  0D56  09F7               	comf	___awdiv@quotient,f
  3729  0D57  09F8               	comf	___awdiv@quotient+1,f
  3730  0D58  0AF7               	incf	___awdiv@quotient,f
  3731  0D59  1903               	skipnz
  3732  0D5A  0AF8               	incf	___awdiv@quotient+1,f
  3733  0D5B                     l2338:
  3734  0D5B  0878               	movf	___awdiv@quotient+1,w
  3735  0D5C  00F1               	movwf	?___awdiv+1
  3736  0D5D  0877               	movf	___awdiv@quotient,w
  3737  0D5E  00F0               	movwf	?___awdiv
  3738  0D5F                     l557:
  3739  0D5F  0008               	return
  3740  0D60                     __end_of___awdiv:
  3741                           
  3742                           	psect	text19
  3743  1711                     __ptext19:	
  3744 ;; *************** function _broadcast_BT *****************
  3745 ;; Defined at:
  3746 ;;		line 50 in file "./bluetooth_module.h"
  3747 ;; Parameters:    Size  Location     Type
  3748 ;;		None
  3749 ;; Auto vars:     Size  Location     Type
  3750 ;;		None
  3751 ;; Return value:  Size  Location     Type
  3752 ;;                  1    wreg      void 
  3753 ;; Registers used:
  3754 ;;		wreg
  3755 ;; Tracked objects:
  3756 ;;		On entry : 0/0
  3757 ;;		On exit  : 0/0
  3758 ;;		Unchanged: 0/0
  3759 ;; Data sizes:     COMMON   BANK0   BANK1   BANK3   BANK2
  3760 ;;      Params:         0       0       0       0       0
  3761 ;;      Locals:         0       0       0       0       0
  3762 ;;      Temps:          3       0       0       0       0
  3763 ;;      Totals:         3       0       0       0       0
  3764 ;;Total ram usage:        3 bytes
  3765 ;; Hardware stack levels used:    1
  3766 ;; This function calls:
  3767 ;;		Nothing
  3768 ;; This function is called by:
  3769 ;;		_main
  3770 ;;		_print_option_BT
  3771 ;;		_print_status
  3772 ;;		_temp_warning
  3773 ;;		_humi_warning
  3774 ;;		_control_BT
  3775 ;; This function uses a non-reentrant model
  3776 ;;
  3777                           
  3778                           
  3779                           ;psect for function _broadcast_BT
  3780  1711                     _broadcast_BT:
  3781  1711                     l2448:	
  3782                           ;incstack = 0
  3783                           ; Regs used in _broadcast_BT: [wreg]
  3784                           
  3785                           
  3786                           ;./bluetooth_module.h: 52:   TXREG = 13;
  3787  1711  300D               	movlw	13
  3788  1712  1283               	bcf	3,5	;RP0=0, select bank0
  3789  1713  1303               	bcf	3,6	;RP1=0, select bank0
  3790  1714  0099               	movwf	25	;volatile
  3791                           
  3792                           ;./bluetooth_module.h: 53:   _delay((unsigned long)((500)*(20000000/4000.0)));
  3793  1715  300D               	movlw	13
  3794  1716  00F2               	movwf	??_broadcast_BT+2
  3795  1717  30AF               	movlw	175
  3796  1718  00F1               	movwf	??_broadcast_BT+1
  3797  1719  30B6               	movlw	182
  3798  171A  00F0               	movwf	??_broadcast_BT
  3799  171B                     u3327:
  3800  171B  0BF0               	decfsz	??_broadcast_BT,f
  3801  171C  2F1B               	goto	u3327
  3802  171D  0BF1               	decfsz	??_broadcast_BT+1,f
  3803  171E  2F1B               	goto	u3327
  3804  171F  0BF2               	decfsz	??_broadcast_BT+2,f
  3805  1720  2F1B               	goto	u3327
  3806  1721  0000               	nop
  3807  1722                     l238:
  3808  1722  0008               	return
  3809  1723                     __end_of_broadcast_BT:
  3810                           
  3811                           	psect	text20
  3812  17DA                     __ptext20:	
  3813 ;; *************** function _BT_load_string *****************
  3814 ;; Defined at:
  3815 ;;		line 42 in file "./bluetooth_module.h"
  3816 ;; Parameters:    Size  Location     Type
  3817 ;;  string          2   12[COMMON] PTR unsigned char 
  3818 ;;		 -> STR_30(16), STR_29(16), STR_28(16), STR_27(38), 
  3819 ;;		 -> STR_26(37), STR_25(41), STR_24(40), STR_23(7), 
  3820 ;;		 -> STR_22(11), STR_21(7), STR_20(7), STR_19(16), 
  3821 ;;		 -> STR_18(4), STR_17(3), STR_16(15), STR_15(4), 
  3822 ;;		 -> STR_14(3), STR_13(17), STR_12(3), STR_11(30), 
  3823 ;;		 -> STR_10(6), STR_9(33), STR_8(18), STR_7(18), 
  3824 ;;		 -> STR_6(15), STR_5(38), STR_4(42), STR_3(26), 
  3825 ;;		 -> getStringData@buff(2), 
  3826 ;; Auto vars:     Size  Location     Type
  3827 ;;		None
  3828 ;; Return value:  Size  Location     Type
  3829 ;;                  1    wreg      void 
  3830 ;; Registers used:
  3831 ;;		wreg, fsr0l, fsr0h, status,2, status,0, btemp+1, pclath, cstack
  3832 ;; Tracked objects:
  3833 ;;		On entry : 0/0
  3834 ;;		On exit  : 0/0
  3835 ;;		Unchanged: 0/0
  3836 ;; Data sizes:     COMMON   BANK0   BANK1   BANK3   BANK2
  3837 ;;      Params:         2       0       0       0       0
  3838 ;;      Locals:         0       0       0       0       0
  3839 ;;      Temps:          0       0       0       0       0
  3840 ;;      Totals:         2       0       0       0       0
  3841 ;;Total ram usage:        2 bytes
  3842 ;; Hardware stack levels used:    1
  3843 ;; Hardware stack levels required when called:    1
  3844 ;; This function calls:
  3845 ;;		_BT_load_char
  3846 ;; This function is called by:
  3847 ;;		_main
  3848 ;;		_print_option_BT
  3849 ;;		_print_status
  3850 ;;		_temp_warning
  3851 ;;		_humi_warning
  3852 ;;		_control_BT
  3853 ;; This function uses a non-reentrant model
  3854 ;;
  3855                           
  3856                           
  3857                           ;psect for function _BT_load_string
  3858  17DA                     _BT_load_string:
  3859  17DA                     l2440:	
  3860                           ;incstack = 0
  3861                           ; Regs used in _BT_load_string: [wreg-fsr0h+status,2+status,0+btemp+1+pclath+cstack]
  3862                           
  3863                           
  3864                           ;./bluetooth_module.h: 42: void BT_load_string(char* string);./bluetooth_module.h: 43: {
      +                          ;./bluetooth_module.h: 44:     while(*string)
  3865  17DA  2FEF               	goto	l2446
  3866  17DB                     l2442:
  3867                           
  3868                           ;./bluetooth_module.h: 45:     BT_load_char(*string++);
  3869  17DB  087D               	movf	BT_load_string@string+1,w
  3870  17DC  00FF               	movwf	btemp+1
  3871  17DD  087C               	movf	BT_load_string@string,w
  3872  17DE  0084               	movwf	4
  3873  17DF  160A  118A  2000  160A  118A  	fcall	stringtab
  3874  17E4  160A  118A  26F1  160A  118A  	fcall	_BT_load_char
  3875  17E9                     l2444:
  3876  17E9  3001               	movlw	1
  3877  17EA  07FC               	addwf	BT_load_string@string,f
  3878  17EB  1803               	skipnc
  3879  17EC  0AFD               	incf	BT_load_string@string+1,f
  3880  17ED  3000               	movlw	0
  3881  17EE  07FD               	addwf	BT_load_string@string+1,f
  3882  17EF                     l2446:
  3883                           
  3884                           ;./bluetooth_module.h: 44:     while(*string)
  3885  17EF  087D               	movf	BT_load_string@string+1,w
  3886  17F0  1283               	bcf	3,5	;RP0=0, select bank0
  3887  17F1  1303               	bcf	3,6	;RP1=0, select bank0
  3888  17F2  00FF               	movwf	btemp+1
  3889  17F3  087C               	movf	BT_load_string@string,w
  3890  17F4  0084               	movwf	4
  3891  17F5  160A  118A  2000  160A  118A  	fcall	stringtab
  3892  17FA  3A00               	xorlw	0
  3893  17FB  1D03               	skipz
  3894  17FC  2FFE               	goto	u2971
  3895  17FD  2FFF               	goto	u2970
  3896  17FE                     u2971:
  3897  17FE  2FDB               	goto	l2442
  3898  17FF                     u2970:
  3899  17FF                     l235:
  3900  17FF  0008               	return
  3901  1800                     __end_of_BT_load_string:
  3902                           
  3903                           	psect	text21
  3904  16F1                     __ptext21:	
  3905 ;; *************** function _BT_load_char *****************
  3906 ;; Defined at:
  3907 ;;		line 34 in file "./bluetooth_module.h"
  3908 ;; Parameters:    Size  Location     Type
  3909 ;;  byte            1    wreg     unsigned char 
  3910 ;; Auto vars:     Size  Location     Type
  3911 ;;  byte            1    0[COMMON] unsigned char 
  3912 ;; Return value:  Size  Location     Type
  3913 ;;                  1    wreg      void 
  3914 ;; Registers used:
  3915 ;;		wreg
  3916 ;; Tracked objects:
  3917 ;;		On entry : 0/0
  3918 ;;		On exit  : 0/0
  3919 ;;		Unchanged: 0/0
  3920 ;; Data sizes:     COMMON   BANK0   BANK1   BANK3   BANK2
  3921 ;;      Params:         0       0       0       0       0
  3922 ;;      Locals:         1       0       0       0       0
  3923 ;;      Temps:          0       0       0       0       0
  3924 ;;      Totals:         1       0       0       0       0
  3925 ;;Total ram usage:        1 bytes
  3926 ;; Hardware stack levels used:    1
  3927 ;; This function calls:
  3928 ;;		Nothing
  3929 ;; This function is called by:
  3930 ;;		_BT_load_string
  3931 ;; This function uses a non-reentrant model
  3932 ;;
  3933                           
  3934                           
  3935                           ;psect for function _BT_load_char
  3936  16F1                     _BT_load_char:
  3937                           
  3938                           ;incstack = 0
  3939                           ; Regs used in _BT_load_char: [wreg]
  3940                           ;BT_load_char@byte stored from wreg
  3941  16F1  00F0               	movwf	BT_load_char@byte
  3942  16F2                     l2294:
  3943                           
  3944                           ;./bluetooth_module.h: 34: void BT_load_char(char byte);./bluetooth_module.h: 35: {;./bl
      +                          uetooth_module.h: 36:     TXREG = byte;
  3945  16F2  0870               	movf	BT_load_char@byte,w
  3946  16F3  1283               	bcf	3,5	;RP0=0, select bank0
  3947  16F4  1303               	bcf	3,6	;RP1=0, select bank0
  3948  16F5  0099               	movwf	25	;volatile
  3949  16F6                     l223:	
  3950                           ;./bluetooth_module.h: 37:     while(!TXIF);
  3951                           
  3952  16F6  1E0C               	btfss	12,4	;volatile
  3953  16F7  2EF9               	goto	u2701
  3954  16F8  2EFA               	goto	u2700
  3955  16F9                     u2701:
  3956  16F9  2EF6               	goto	l223
  3957  16FA                     u2700:
  3958  16FA                     l226:
  3959  16FA  1683               	bsf	3,5	;RP0=1, select bank1
  3960  16FB  1303               	bcf	3,6	;RP1=0, select bank1
  3961  16FC  1C98               	btfss	24,1	;volatile
  3962  16FD  2EFF               	goto	u2711
  3963  16FE  2F00               	goto	u2710
  3964  16FF                     u2711:
  3965  16FF  2EFA               	goto	l226
  3966  1700                     u2710:
  3967  1700                     l229:
  3968  1700  0008               	return
  3969  1701                     __end_of_BT_load_char:
  3970                           
  3971                           	psect	text22
  3972  16C2                     __ptext22:	
  3973 ;; *************** function _fan_on *****************
  3974 ;; Defined at:
  3975 ;;		line 103 in file "./motors.h"
  3976 ;; Parameters:    Size  Location     Type
  3977 ;;		None
  3978 ;; Auto vars:     Size  Location     Type
  3979 ;;		None
  3980 ;; Return value:  Size  Location     Type
  3981 ;;                  1    wreg      void 
  3982 ;; Registers used:
  3983 ;;		None
  3984 ;; Tracked objects:
  3985 ;;		On entry : 0/0
  3986 ;;		On exit  : 0/0
  3987 ;;		Unchanged: 0/0
  3988 ;; Data sizes:     COMMON   BANK0   BANK1   BANK3   BANK2
  3989 ;;      Params:         0       0       0       0       0
  3990 ;;      Locals:         0       0       0       0       0
  3991 ;;      Temps:          0       0       0       0       0
  3992 ;;      Totals:         0       0       0       0       0
  3993 ;;Total ram usage:        0 bytes
  3994 ;; Hardware stack levels used:    1
  3995 ;; This function calls:
  3996 ;;		Nothing
  3997 ;; This function is called by:
  3998 ;;		_checkTemp
  3999 ;;		_control_BT
  4000 ;; This function uses a non-reentrant model
  4001 ;;
  4002                           
  4003                           
  4004                           ;psect for function _fan_on
  4005  16C2                     _fan_on:
  4006  16C2                     l2380:	
  4007                           ;incstack = 0
  4008                           ; Regs used in _fan_on: []
  4009                           
  4010                           
  4011                           ;./motors.h: 104:     RB2 = 1;
  4012  16C2  1283               	bcf	3,5	;RP0=0, select bank0
  4013  16C3  1303               	bcf	3,6	;RP1=0, select bank0
  4014  16C4  1506               	bsf	6,2	;volatile
  4015  16C5                     l214:
  4016  16C5  0008               	return
  4017  16C6                     __end_of_fan_on:
  4018                           
  4019                           	psect	text23
  4020  16BE                     __ptext23:	
  4021 ;; *************** function _fan_off *****************
  4022 ;; Defined at:
  4023 ;;		line 107 in file "./motors.h"
  4024 ;; Parameters:    Size  Location     Type
  4025 ;;		None
  4026 ;; Auto vars:     Size  Location     Type
  4027 ;;		None
  4028 ;; Return value:  Size  Location     Type
  4029 ;;                  1    wreg      void 
  4030 ;; Registers used:
  4031 ;;		None
  4032 ;; Tracked objects:
  4033 ;;		On entry : 0/0
  4034 ;;		On exit  : 0/0
  4035 ;;		Unchanged: 0/0
  4036 ;; Data sizes:     COMMON   BANK0   BANK1   BANK3   BANK2
  4037 ;;      Params:         0       0       0       0       0
  4038 ;;      Locals:         0       0       0       0       0
  4039 ;;      Temps:          0       0       0       0       0
  4040 ;;      Totals:         0       0       0       0       0
  4041 ;;Total ram usage:        0 bytes
  4042 ;; Hardware stack levels used:    1
  4043 ;; This function calls:
  4044 ;;		Nothing
  4045 ;; This function is called by:
  4046 ;;		_control_BT
  4047 ;; This function uses a non-reentrant model
  4048 ;;
  4049                           
  4050                           
  4051                           ;psect for function _fan_off
  4052  16BE                     _fan_off:
  4053  16BE                     l2490:	
  4054                           ;incstack = 0
  4055                           ; Regs used in _fan_off: []
  4056                           
  4057                           
  4058                           ;./motors.h: 108:     RB2 = 0;
  4059  16BE  1283               	bcf	3,5	;RP0=0, select bank0
  4060  16BF  1303               	bcf	3,6	;RP1=0, select bank0
  4061  16C0  1106               	bcf	6,2	;volatile
  4062  16C1                     l217:
  4063  16C1  0008               	return
  4064  16C2                     __end_of_fan_off:
  4065                           
  4066                           	psect	text24
  4067  177F                     __ptext24:	
  4068 ;; *************** function _auto_food *****************
  4069 ;; Defined at:
  4070 ;;		line 59 in file "./motors.h"
  4071 ;; Parameters:    Size  Location     Type
  4072 ;;		None
  4073 ;; Auto vars:     Size  Location     Type
  4074 ;;		None
  4075 ;; Return value:  Size  Location     Type
  4076 ;;                  1    wreg      void 
  4077 ;; Registers used:
  4078 ;;		wreg, status,2, status,0, btemp+1, pclath, cstack
  4079 ;; Tracked objects:
  4080 ;;		On entry : 0/0
  4081 ;;		On exit  : 0/0
  4082 ;;		Unchanged: 0/0
  4083 ;; Data sizes:     COMMON   BANK0   BANK1   BANK3   BANK2
  4084 ;;      Params:         0       0       0       0       0
  4085 ;;      Locals:         0       0       0       0       0
  4086 ;;      Temps:          0       0       0       0       0
  4087 ;;      Totals:         0       0       0       0       0
  4088 ;;Total ram usage:        0 bytes
  4089 ;; Hardware stack levels used:    1
  4090 ;; Hardware stack levels required when called:    3
  4091 ;; This function calls:
  4092 ;;		_distance
  4093 ;;		_runFood
  4094 ;; This function is called by:
  4095 ;;		_main
  4096 ;; This function uses a non-reentrant model
  4097 ;;
  4098                           
  4099                           
  4100                           ;psect for function _auto_food
  4101  177F                     _auto_food:
  4102  177F                     l2626:	
  4103                           ;incstack = 0
  4104                           ; Regs used in _auto_food: [wreg+status,2+status,0+btemp+1+pclath+cstack]
  4105                           
  4106                           
  4107                           ;./motors.h: 60:     if (distance() >= 10) {
  4108  177F  120A  118A  2052  160A  118A  	fcall	_distance
  4109  1784  1283               	bcf	3,5	;RP0=0, select bank0
  4110  1785  1303               	bcf	3,6	;RP1=0, select bank0
  4111  1786  0860               	movf	?_distance+1,w
  4112  1787  3A80               	xorlw	128
  4113  1788  00FF               	movwf	btemp+1
  4114  1789  3080               	movlw	128
  4115  178A  027F               	subwf	btemp+1,w
  4116  178B  1D03               	skipz
  4117  178C  2F8F               	goto	u3145
  4118  178D  300A               	movlw	10
  4119  178E  025F               	subwf	?_distance,w
  4120  178F                     u3145:
  4121  178F  1C03               	skipc
  4122  1790  2F92               	goto	u3141
  4123  1791  2F93               	goto	u3140
  4124  1792                     u3141:
  4125  1792  2F98               	goto	l194
  4126  1793                     u3140:
  4127  1793                     l2628:
  4128                           
  4129                           ;./motors.h: 61:         runFood();
  4130  1793  160A  118A  274D  160A  118A  	fcall	_runFood
  4131  1798                     l194:
  4132  1798  0008               	return
  4133  1799                     __end_of_auto_food:
  4134                           
  4135                           	psect	text25
  4136  174D                     __ptext25:	
  4137 ;; *************** function _runFood *****************
  4138 ;; Defined at:
  4139 ;;		line 53 in file "./motors.h"
  4140 ;; Parameters:    Size  Location     Type
  4141 ;;		None
  4142 ;; Auto vars:     Size  Location     Type
  4143 ;;		None
  4144 ;; Return value:  Size  Location     Type
  4145 ;;                  1    wreg      void 
  4146 ;; Registers used:
  4147 ;;		wreg, status,2, status,0, pclath, cstack
  4148 ;; Tracked objects:
  4149 ;;		On entry : 0/0
  4150 ;;		On exit  : 0/0
  4151 ;;		Unchanged: 0/0
  4152 ;; Data sizes:     COMMON   BANK0   BANK1   BANK3   BANK2
  4153 ;;      Params:         0       0       0       0       0
  4154 ;;      Locals:         0       0       0       0       0
  4155 ;;      Temps:          3       0       0       0       0
  4156 ;;      Totals:         3       0       0       0       0
  4157 ;;Total ram usage:        3 bytes
  4158 ;; Hardware stack levels used:    1
  4159 ;; Hardware stack levels required when called:    1
  4160 ;; This function calls:
  4161 ;;		_rotation0
  4162 ;;		_rotation90
  4163 ;; This function is called by:
  4164 ;;		_auto_food
  4165 ;;		_control_BT
  4166 ;; This function uses a non-reentrant model
  4167 ;;
  4168                           
  4169                           
  4170                           ;psect for function _runFood
  4171  174D                     _runFood:
  4172  174D                     l2484:	
  4173                           ;incstack = 0
  4174                           ; Regs used in _runFood: [wreg+status,2+status,0+pclath+cstack]
  4175                           
  4176                           
  4177                           ;./motors.h: 54:     rotation90();
  4178  174D  120A  158A  2295  160A  118A  	fcall	_rotation90
  4179  1752                     l2486:
  4180                           
  4181                           ;./motors.h: 55:     _delay((unsigned long)((2000)*(20000000/4000.0)));
  4182  1752  3033               	movlw	51
  4183  1753  00F6               	movwf	??_runFood+2
  4184  1754  30BB               	movlw	187
  4185  1755  00F5               	movwf	??_runFood+1
  4186  1756  30DF               	movlw	223
  4187  1757  00F4               	movwf	??_runFood
  4188  1758                     u3337:
  4189  1758  0BF4               	decfsz	??_runFood,f
  4190  1759  2F58               	goto	u3337
  4191  175A  0BF5               	decfsz	??_runFood+1,f
  4192  175B  2F58               	goto	u3337
  4193  175C  0BF6               	decfsz	??_runFood+2,f
  4194  175D  2F58               	goto	u3337
  4195  175E  2F5F               	nop2
  4196  175F                     l2488:
  4197                           
  4198                           ;./motors.h: 56:     rotation0();
  4199  175F  120A  158A  226C  160A  118A  	fcall	_rotation0
  4200  1764                     l190:
  4201  1764  0008               	return
  4202  1765                     __end_of_runFood:
  4203                           
  4204                           	psect	text26
  4205  0A95                     __ptext26:	
  4206 ;; *************** function _rotation90 *****************
  4207 ;; Defined at:
  4208 ;;		line 41 in file "./motors.h"
  4209 ;; Parameters:    Size  Location     Type
  4210 ;;		None
  4211 ;; Auto vars:     Size  Location     Type
  4212 ;;  i               2    2[COMMON] unsigned int 
  4213 ;; Return value:  Size  Location     Type
  4214 ;;                  1    wreg      void 
  4215 ;; Registers used:
  4216 ;;		wreg, status,2
  4217 ;; Tracked objects:
  4218 ;;		On entry : 0/0
  4219 ;;		On exit  : 0/0
  4220 ;;		Unchanged: 0/0
  4221 ;; Data sizes:     COMMON   BANK0   BANK1   BANK3   BANK2
  4222 ;;      Params:         0       0       0       0       0
  4223 ;;      Locals:         2       0       0       0       0
  4224 ;;      Temps:          2       0       0       0       0
  4225 ;;      Totals:         4       0       0       0       0
  4226 ;;Total ram usage:        4 bytes
  4227 ;; Hardware stack levels used:    1
  4228 ;; This function calls:
  4229 ;;		Nothing
  4230 ;; This function is called by:
  4231 ;;		_runFood
  4232 ;; This function uses a non-reentrant model
  4233 ;;
  4234                           
  4235                           
  4236                           ;psect for function _rotation90
  4237  0A95                     _rotation90:
  4238  0A95                     l2406:	
  4239                           ;incstack = 0
  4240                           ; Regs used in _rotation90: [wreg+status,2]
  4241                           
  4242                           
  4243                           ;./motors.h: 42:     unsigned int i;;./motors.h: 43:     for(i=0;i<50;i++)
  4244  0A95  01F2               	clrf	rotation90@i
  4245  0A96  01F3               	clrf	rotation90@i+1
  4246  0A97                     l185:
  4247                           
  4248                           ;./motors.h: 44:     {;./motors.h: 45:         RB7 = 1;
  4249  0A97  1283               	bcf	3,5	;RP0=0, select bank0
  4250  0A98  1303               	bcf	3,6	;RP1=0, select bank0
  4251  0A99  1786               	bsf	6,7	;volatile
  4252  0A9A                     l2412:
  4253                           
  4254                           ;./motors.h: 46:         _delay((unsigned long)((1500)*(20000000/4000000.0)));
  4255  0A9A  300A               	movlw	10
  4256  0A9B  00F1               	movwf	??_rotation90+1
  4257  0A9C  30BC               	movlw	188
  4258  0A9D  00F0               	movwf	??_rotation90
  4259  0A9E                     u3347:
  4260  0A9E  0BF0               	decfsz	??_rotation90,f
  4261  0A9F  2A9E               	goto	u3347
  4262  0AA0  0BF1               	decfsz	??_rotation90+1,f
  4263  0AA1  2A9E               	goto	u3347
  4264  0AA2  0000               	nop
  4265  0AA3                     l2414:
  4266                           
  4267                           ;./motors.h: 47:         RB7 = 0;
  4268  0AA3  1283               	bcf	3,5	;RP0=0, select bank0
  4269  0AA4  1303               	bcf	3,6	;RP1=0, select bank0
  4270  0AA5  1386               	bcf	6,7	;volatile
  4271                           
  4272                           ;./motors.h: 48:         _delay((unsigned long)((18500)*(20000000/4000000.0)));
  4273  0AA6  3079               	movlw	121
  4274  0AA7  00F1               	movwf	??_rotation90+1
  4275  0AA8  301F               	movlw	31
  4276  0AA9  00F0               	movwf	??_rotation90
  4277  0AAA                     u3357:
  4278  0AAA  0BF0               	decfsz	??_rotation90,f
  4279  0AAB  2AAA               	goto	u3357
  4280  0AAC  0BF1               	decfsz	??_rotation90+1,f
  4281  0AAD  2AAA               	goto	u3357
  4282  0AAE  2AAF               	nop2
  4283                           
  4284                           ;./motors.h: 49:     }
  4285  0AAF  3001               	movlw	1
  4286  0AB0  07F2               	addwf	rotation90@i,f
  4287  0AB1  1803               	skipnc
  4288  0AB2  0AF3               	incf	rotation90@i+1,f
  4289  0AB3  3000               	movlw	0
  4290  0AB4  07F3               	addwf	rotation90@i+1,f
  4291  0AB5  3000               	movlw	0
  4292  0AB6  0273               	subwf	rotation90@i+1,w
  4293  0AB7  3032               	movlw	50
  4294  0AB8  1903               	skipnz
  4295  0AB9  0272               	subwf	rotation90@i,w
  4296  0ABA  1C03               	skipc
  4297  0ABB  2ABD               	goto	u2931
  4298  0ABC  2ABE               	goto	u2930
  4299  0ABD                     u2931:
  4300  0ABD  2A97               	goto	l185
  4301  0ABE                     u2930:
  4302  0ABE                     l187:
  4303  0ABE  0008               	return
  4304  0ABF                     __end_of_rotation90:
  4305                           
  4306                           	psect	text27
  4307  0A6C                     __ptext27:	
  4308 ;; *************** function _rotation0 *****************
  4309 ;; Defined at:
  4310 ;;		line 30 in file "./motors.h"
  4311 ;; Parameters:    Size  Location     Type
  4312 ;;		None
  4313 ;; Auto vars:     Size  Location     Type
  4314 ;;  i               2    2[COMMON] unsigned int 
  4315 ;; Return value:  Size  Location     Type
  4316 ;;                  1    wreg      void 
  4317 ;; Registers used:
  4318 ;;		wreg, status,2
  4319 ;; Tracked objects:
  4320 ;;		On entry : 0/0
  4321 ;;		On exit  : 0/0
  4322 ;;		Unchanged: 0/0
  4323 ;; Data sizes:     COMMON   BANK0   BANK1   BANK3   BANK2
  4324 ;;      Params:         0       0       0       0       0
  4325 ;;      Locals:         2       0       0       0       0
  4326 ;;      Temps:          2       0       0       0       0
  4327 ;;      Totals:         4       0       0       0       0
  4328 ;;Total ram usage:        4 bytes
  4329 ;; Hardware stack levels used:    1
  4330 ;; This function calls:
  4331 ;;		Nothing
  4332 ;; This function is called by:
  4333 ;;		_runFood
  4334 ;; This function uses a non-reentrant model
  4335 ;;
  4336                           
  4337                           
  4338                           ;psect for function _rotation0
  4339  0A6C                     _rotation0:
  4340  0A6C                     l2396:	
  4341                           ;incstack = 0
  4342                           ; Regs used in _rotation0: [wreg+status,2]
  4343                           
  4344                           
  4345                           ;./motors.h: 32:     unsigned int i;;./motors.h: 33:     for(i=0;i<50;i++) {
  4346  0A6C  01F2               	clrf	rotation0@i
  4347  0A6D  01F3               	clrf	rotation0@i+1
  4348  0A6E                     l180:
  4349                           
  4350                           ;./motors.h: 34:         RB7 = 1;
  4351  0A6E  1283               	bcf	3,5	;RP0=0, select bank0
  4352  0A6F  1303               	bcf	3,6	;RP1=0, select bank0
  4353  0A70  1786               	bsf	6,7	;volatile
  4354  0A71                     l2402:
  4355                           
  4356                           ;./motors.h: 35:         _delay((unsigned long)((1000)*(20000000/4000000.0)));
  4357  0A71  3007               	movlw	7
  4358  0A72  00F1               	movwf	??_rotation0+1
  4359  0A73  307D               	movlw	125
  4360  0A74  00F0               	movwf	??_rotation0
  4361  0A75                     u3367:
  4362  0A75  0BF0               	decfsz	??_rotation0,f
  4363  0A76  2A75               	goto	u3367
  4364  0A77  0BF1               	decfsz	??_rotation0+1,f
  4365  0A78  2A75               	goto	u3367
  4366  0A79                     l2404:
  4367                           
  4368                           ;./motors.h: 36:         RB7 = 0;
  4369  0A79  1283               	bcf	3,5	;RP0=0, select bank0
  4370  0A7A  1303               	bcf	3,6	;RP1=0, select bank0
  4371  0A7B  1386               	bcf	6,7	;volatile
  4372                           
  4373                           ;./motors.h: 37:         _delay((unsigned long)((19200)*(20000000/4000000.0)));
  4374  0A7C  307D               	movlw	125
  4375  0A7D  00F1               	movwf	??_rotation0+1
  4376  0A7E  30AB               	movlw	171
  4377  0A7F  00F0               	movwf	??_rotation0
  4378  0A80                     u3377:
  4379  0A80  0BF0               	decfsz	??_rotation0,f
  4380  0A81  2A80               	goto	u3377
  4381  0A82  0BF1               	decfsz	??_rotation0+1,f
  4382  0A83  2A80               	goto	u3377
  4383  0A84  2A85               	nop2
  4384                           
  4385                           ;./motors.h: 38:     }
  4386  0A85  3001               	movlw	1
  4387  0A86  07F2               	addwf	rotation0@i,f
  4388  0A87  1803               	skipnc
  4389  0A88  0AF3               	incf	rotation0@i+1,f
  4390  0A89  3000               	movlw	0
  4391  0A8A  07F3               	addwf	rotation0@i+1,f
  4392  0A8B  3000               	movlw	0
  4393  0A8C  0273               	subwf	rotation0@i+1,w
  4394  0A8D  3032               	movlw	50
  4395  0A8E  1903               	skipnz
  4396  0A8F  0272               	subwf	rotation0@i,w
  4397  0A90  1C03               	skipc
  4398  0A91  2A93               	goto	u2921
  4399  0A92  2A94               	goto	u2920
  4400  0A93                     u2921:
  4401  0A93  2A6E               	goto	l180
  4402  0A94                     u2920:
  4403  0A94                     l182:
  4404  0A94  0008               	return
  4405  0A95                     __end_of_rotation0:
  4406                           
  4407                           	psect	text28
  4408  0052                     __ptext28:	
  4409 ;; *************** function _distance *****************
  4410 ;; Defined at:
  4411 ;;		line 9 in file "./motors.h"
  4412 ;; Parameters:    Size  Location     Type
  4413 ;;		None
  4414 ;; Auto vars:     Size  Location     Type
  4415 ;;  time_taken      2   68[BANK0 ] int 
  4416 ;;  distance        2   66[BANK0 ] int 
  4417 ;; Return value:  Size  Location     Type
  4418 ;;                  2   63[BANK0 ] int 
  4419 ;; Registers used:
  4420 ;;		wreg, status,2, status,0, btemp+1, pclath, cstack
  4421 ;; Tracked objects:
  4422 ;;		On entry : 0/0
  4423 ;;		On exit  : 0/0
  4424 ;;		Unchanged: 0/0
  4425 ;; Data sizes:     COMMON   BANK0   BANK1   BANK3   BANK2
  4426 ;;      Params:         0       2       0       0       0
  4427 ;;      Locals:         0       4       0       0       0
  4428 ;;      Temps:          0       1       0       0       0
  4429 ;;      Totals:         0       7       0       0       0
  4430 ;;Total ram usage:        7 bytes
  4431 ;; Hardware stack levels used:    1
  4432 ;; Hardware stack levels required when called:    2
  4433 ;; This function calls:
  4434 ;;		___fldiv
  4435 ;;		___flmul
  4436 ;;		___fltol
  4437 ;;		___xxtofl
  4438 ;; This function is called by:
  4439 ;;		_auto_food
  4440 ;;		_get_level_food
  4441 ;; This function uses a non-reentrant model
  4442 ;;
  4443                           
  4444                           
  4445                           ;psect for function _distance
  4446  0052                     _distance:
  4447  0052                     l2276:	
  4448                           ;incstack = 0
  4449                           ; Regs used in _distance: [wreg+status,2+status,0+btemp+1+pclath+cstack]
  4450                           
  4451                           
  4452                           ;./motors.h: 10:     int time_taken;;./motors.h: 11:     int distance;;./motors.h: 12:  
      +                             TMR1H =0; TMR1L =0;
  4453  0052  1283               	bcf	3,5	;RP0=0, select bank0
  4454  0053  1303               	bcf	3,6	;RP1=0, select bank0
  4455  0054  018F               	clrf	15	;volatile
  4456  0055  018E               	clrf	14	;volatile
  4457  0056                     l2278:
  4458                           
  4459                           ;./motors.h: 14:         RC2 = 1;
  4460  0056  1507               	bsf	7,2	;volatile
  4461  0057                     l2280:
  4462                           
  4463                           ;./motors.h: 15:         _delay((unsigned long)((10)*(20000000/4000000.0)));
  4464  0057  300F               	movlw	15
  4465  0058  1283               	bcf	3,5	;RP0=0, select bank0
  4466  0059  1303               	bcf	3,6	;RP1=0, select bank0
  4467  005A  00E1               	movwf	??_distance
  4468  005B                     u3387:
  4469  005B  0BE1               	decfsz	??_distance,f
  4470  005C  285B               	goto	u3387
  4471  005D  285E               	nop2
  4472  005E                     l2282:
  4473                           
  4474                           ;./motors.h: 16:         RC2 = 0;
  4475  005E  1283               	bcf	3,5	;RP0=0, select bank0
  4476  005F  1303               	bcf	3,6	;RP1=0, select bank0
  4477  0060  1107               	bcf	7,2	;volatile
  4478  0061                     l171:	
  4479                           ;./motors.h: 18:         while (RC3==0);
  4480                           
  4481  0061  1D87               	btfss	7,3	;volatile
  4482  0062  2864               	goto	u2681
  4483  0063  2865               	goto	u2680
  4484  0064                     u2681:
  4485  0064  2861               	goto	l171
  4486  0065                     u2680:
  4487  0065                     l173:
  4488                           
  4489                           ;./motors.h: 19:             TMR1ON = 1;
  4490  0065  1410               	bsf	16,0	;volatile
  4491  0066                     l174:	
  4492                           ;./motors.h: 20:         while (RC3==1);
  4493                           
  4494  0066  1987               	btfsc	7,3	;volatile
  4495  0067  2869               	goto	u2691
  4496  0068  286A               	goto	u2690
  4497  0069                     u2691:
  4498  0069  2866               	goto	l174
  4499  006A                     u2690:
  4500  006A                     l176:
  4501                           
  4502                           ;./motors.h: 21:             TMR1ON = 0;
  4503  006A  1010               	bcf	16,0	;volatile
  4504  006B                     l2284:
  4505                           
  4506                           ;./motors.h: 23:         time_taken = (TMR1L | (TMR1H<<8));
  4507  006B  080F               	movf	15,w	;volatile
  4508  006C  00E5               	movwf	distance@time_taken+1
  4509  006D  080E               	movf	14,w	;volatile
  4510  006E  00E4               	movwf	distance@time_taken
  4511  006F                     l2286:
  4512                           
  4513                           ;./motors.h: 24:         distance= (0.0272*time_taken)/2;
  4514  006F  0864               	movf	distance@time_taken,w
  4515  0070  00F0               	movwf	___xxtofl@val
  4516  0071  0865               	movf	distance@time_taken+1,w
  4517  0072  00F1               	movwf	___xxtofl@val+1
  4518  0073  3000               	movlw	0
  4519  0074  1BF1               	btfsc	___xxtofl@val+1,7
  4520  0075  30FF               	movlw	255
  4521  0076  00F2               	movwf	___xxtofl@val+2
  4522  0077  00F3               	movwf	___xxtofl@val+3
  4523  0078  3001               	movlw	1
  4524  0079  120A  118A  2105  120A  118A  	fcall	___xxtofl
  4525  007E  0873               	movf	?___xxtofl+3,w
  4526  007F  1283               	bcf	3,5	;RP0=0, select bank0
  4527  0080  1303               	bcf	3,6	;RP1=0, select bank0
  4528  0081  00A7               	movwf	___flmul@a+3
  4529  0082  0872               	movf	?___xxtofl+2,w
  4530  0083  00A6               	movwf	___flmul@a+2
  4531  0084  0871               	movf	?___xxtofl+1,w
  4532  0085  00A5               	movwf	___flmul@a+1
  4533  0086  0870               	movf	?___xxtofl,w
  4534  0087  00A4               	movwf	___flmul@a
  4535  0088  303C               	movlw	60
  4536  0089  00A3               	movwf	___flmul@b+3
  4537  008A  30DE               	movlw	222
  4538  008B  00A2               	movwf	___flmul@b+2
  4539  008C  30D2               	movlw	210
  4540  008D  00A1               	movwf	___flmul@b+1
  4541  008E  3089               	movlw	137
  4542  008F  00A0               	movwf	___flmul@b
  4543  0090  120A  118A  2489  120A  118A  	fcall	___flmul
  4544  0095  1283               	bcf	3,5	;RP0=0, select bank0
  4545  0096  1303               	bcf	3,6	;RP1=0, select bank0
  4546  0097  0823               	movf	?___flmul+3,w
  4547  0098  00C1               	movwf	___fldiv@b+3
  4548  0099  0822               	movf	?___flmul+2,w
  4549  009A  00C0               	movwf	___fldiv@b+2
  4550  009B  0821               	movf	?___flmul+1,w
  4551  009C  00BF               	movwf	___fldiv@b+1
  4552  009D  0820               	movf	?___flmul,w
  4553  009E  00BE               	movwf	___fldiv@b
  4554  009F  3040               	movlw	64
  4555  00A0  00BD               	movwf	___fldiv@a+3
  4556  00A1  3000               	movlw	0
  4557  00A2  00BC               	movwf	___fldiv@a+2
  4558  00A3  3000               	movlw	0
  4559  00A4  00BB               	movwf	___fldiv@a+1
  4560  00A5  3000               	movlw	0
  4561  00A6  00BA               	movwf	___fldiv@a
  4562  00A7  120A  118A  22AC  120A  118A  	fcall	___fldiv
  4563  00AC  1283               	bcf	3,5	;RP0=0, select bank0
  4564  00AD  1303               	bcf	3,6	;RP1=0, select bank0
  4565  00AE  083D               	movf	?___fldiv+3,w
  4566  00AF  00D7               	movwf	___fltol@f1+3
  4567  00B0  083C               	movf	?___fldiv+2,w
  4568  00B1  00D6               	movwf	___fltol@f1+2
  4569  00B2  083B               	movf	?___fldiv+1,w
  4570  00B3  00D5               	movwf	___fltol@f1+1
  4571  00B4  083A               	movf	?___fldiv,w
  4572  00B5  00D4               	movwf	___fltol@f1
  4573  00B6  120A  158A  2643  120A  118A  	fcall	___fltol
  4574  00BB  1283               	bcf	3,5	;RP0=0, select bank0
  4575  00BC  1303               	bcf	3,6	;RP1=0, select bank0
  4576  00BD  0855               	movf	?___fltol+1,w
  4577  00BE  00E3               	movwf	distance@distance+1
  4578  00BF  0854               	movf	?___fltol,w
  4579  00C0  00E2               	movwf	distance@distance
  4580  00C1                     l2288:
  4581                           
  4582                           ;./motors.h: 26:         time_taken = time_taken * 0.8;
  4583  00C1  0864               	movf	distance@time_taken,w
  4584  00C2  00F0               	movwf	___xxtofl@val
  4585  00C3  0865               	movf	distance@time_taken+1,w
  4586  00C4  00F1               	movwf	___xxtofl@val+1
  4587  00C5  3000               	movlw	0
  4588  00C6  1BF1               	btfsc	___xxtofl@val+1,7
  4589  00C7  30FF               	movlw	255
  4590  00C8  00F2               	movwf	___xxtofl@val+2
  4591  00C9  00F3               	movwf	___xxtofl@val+3
  4592  00CA  3001               	movlw	1
  4593  00CB  120A  118A  2105  120A  118A  	fcall	___xxtofl
  4594  00D0  0873               	movf	?___xxtofl+3,w
  4595  00D1  1283               	bcf	3,5	;RP0=0, select bank0
  4596  00D2  1303               	bcf	3,6	;RP1=0, select bank0
  4597  00D3  00A7               	movwf	___flmul@a+3
  4598  00D4  0872               	movf	?___xxtofl+2,w
  4599  00D5  00A6               	movwf	___flmul@a+2
  4600  00D6  0871               	movf	?___xxtofl+1,w
  4601  00D7  00A5               	movwf	___flmul@a+1
  4602  00D8  0870               	movf	?___xxtofl,w
  4603  00D9  00A4               	movwf	___flmul@a
  4604  00DA  303F               	movlw	63
  4605  00DB  00A3               	movwf	___flmul@b+3
  4606  00DC  304C               	movlw	76
  4607  00DD  00A2               	movwf	___flmul@b+2
  4608  00DE  30CC               	movlw	204
  4609  00DF  00A1               	movwf	___flmul@b+1
  4610  00E0  30CD               	movlw	205
  4611  00E1  00A0               	movwf	___flmul@b
  4612  00E2  120A  118A  2489  120A  118A  	fcall	___flmul
  4613  00E7  1283               	bcf	3,5	;RP0=0, select bank0
  4614  00E8  1303               	bcf	3,6	;RP1=0, select bank0
  4615  00E9  0823               	movf	?___flmul+3,w
  4616  00EA  00D7               	movwf	___fltol@f1+3
  4617  00EB  0822               	movf	?___flmul+2,w
  4618  00EC  00D6               	movwf	___fltol@f1+2
  4619  00ED  0821               	movf	?___flmul+1,w
  4620  00EE  00D5               	movwf	___fltol@f1+1
  4621  00EF  0820               	movf	?___flmul,w
  4622  00F0  00D4               	movwf	___fltol@f1
  4623  00F1  120A  158A  2643  120A  118A  	fcall	___fltol
  4624  00F6  1283               	bcf	3,5	;RP0=0, select bank0
  4625  00F7  1303               	bcf	3,6	;RP1=0, select bank0
  4626  00F8  0855               	movf	?___fltol+1,w
  4627  00F9  00E5               	movwf	distance@time_taken+1
  4628  00FA  0854               	movf	?___fltol,w
  4629  00FB  00E4               	movwf	distance@time_taken
  4630  00FC                     l2290:
  4631                           
  4632                           ;./motors.h: 27:         return distance + 1;
  4633  00FC  0862               	movf	distance@distance,w
  4634  00FD  3E01               	addlw	1
  4635  00FE  00DF               	movwf	?_distance
  4636  00FF  0863               	movf	distance@distance+1,w
  4637  0100  1803               	skipnc
  4638  0101  3E01               	addlw	1
  4639  0102  3E00               	addlw	0
  4640  0103  00E0               	movwf	?_distance+1
  4641  0104                     l177:
  4642  0104  0008               	return
  4643  0105                     __end_of_distance:
  4644                           
  4645                           	psect	text29
  4646  0105                     __ptext29:	
  4647 ;; *************** function ___xxtofl *****************
  4648 ;; Defined at:
  4649 ;;		line 10 in file "C:\Program Files\Microchip\xc8\v2.30\pic\sources\c90\common\xxtofl.c"
  4650 ;; Parameters:    Size  Location     Type
  4651 ;;  sign            1    wreg     unsigned char 
  4652 ;;  val             4    0[COMMON] long 
  4653 ;; Auto vars:     Size  Location     Type
  4654 ;;  sign            1    8[COMMON] unsigned char 
  4655 ;;  arg             4   10[COMMON] unsigned long 
  4656 ;;  exp             1    9[COMMON] unsigned char 
  4657 ;; Return value:  Size  Location     Type
  4658 ;;                  4    0[COMMON] unsigned char 
  4659 ;; Registers used:
  4660 ;;		wreg, status,2, status,0
  4661 ;; Tracked objects:
  4662 ;;		On entry : 0/0
  4663 ;;		On exit  : 0/0
  4664 ;;		Unchanged: 0/0
  4665 ;; Data sizes:     COMMON   BANK0   BANK1   BANK3   BANK2
  4666 ;;      Params:         4       0       0       0       0
  4667 ;;      Locals:         6       0       0       0       0
  4668 ;;      Temps:          4       0       0       0       0
  4669 ;;      Totals:        14       0       0       0       0
  4670 ;;Total ram usage:       14 bytes
  4671 ;; Hardware stack levels used:    1
  4672 ;; This function calls:
  4673 ;;		Nothing
  4674 ;; This function is called by:
  4675 ;;		_distance
  4676 ;; This function uses a non-reentrant model
  4677 ;;
  4678                           
  4679                           
  4680                           ;psect for function ___xxtofl
  4681  0105                     ___xxtofl:
  4682                           
  4683                           ;incstack = 0
  4684                           ; Regs used in ___xxtofl: [wreg+status,2+status,0]
  4685                           ;___xxtofl@sign stored from wreg
  4686  0105  00F8               	movwf	___xxtofl@sign
  4687  0106                     l2232:
  4688  0106  0878               	movf	___xxtofl@sign,w
  4689  0107  1903               	btfsc	3,2
  4690  0108  290A               	goto	u2541
  4691  0109  290B               	goto	u2540
  4692  010A                     u2541:
  4693  010A  291F               	goto	l2238
  4694  010B                     u2540:
  4695  010B                     l2234:
  4696  010B  1FF3               	btfss	___xxtofl@val+3,7
  4697  010C  290E               	goto	u2551
  4698  010D  290F               	goto	u2550
  4699  010E                     u2551:
  4700  010E  291F               	goto	l2238
  4701  010F                     u2550:
  4702  010F                     l2236:
  4703  010F  0970               	comf	___xxtofl@val,w
  4704  0110  00FA               	movwf	___xxtofl@arg
  4705  0111  0971               	comf	___xxtofl@val+1,w
  4706  0112  00FB               	movwf	___xxtofl@arg+1
  4707  0113  0972               	comf	___xxtofl@val+2,w
  4708  0114  00FC               	movwf	___xxtofl@arg+2
  4709  0115  0973               	comf	___xxtofl@val+3,w
  4710  0116  00FD               	movwf	___xxtofl@arg+3
  4711  0117  0AFA               	incf	___xxtofl@arg,f
  4712  0118  1903               	skipnz
  4713  0119  0AFB               	incf	___xxtofl@arg+1,f
  4714  011A  1903               	skipnz
  4715  011B  0AFC               	incf	___xxtofl@arg+2,f
  4716  011C  1903               	skipnz
  4717  011D  0AFD               	incf	___xxtofl@arg+3,f
  4718  011E  2927               	goto	l837
  4719  011F                     l2238:
  4720  011F  0873               	movf	___xxtofl@val+3,w
  4721  0120  00FD               	movwf	___xxtofl@arg+3
  4722  0121  0872               	movf	___xxtofl@val+2,w
  4723  0122  00FC               	movwf	___xxtofl@arg+2
  4724  0123  0871               	movf	___xxtofl@val+1,w
  4725  0124  00FB               	movwf	___xxtofl@arg+1
  4726  0125  0870               	movf	___xxtofl@val,w
  4727  0126  00FA               	movwf	___xxtofl@arg
  4728  0127                     l837:
  4729  0127  0873               	movf	___xxtofl@val+3,w
  4730  0128  0472               	iorwf	___xxtofl@val+2,w
  4731  0129  0471               	iorwf	___xxtofl@val+1,w
  4732  012A  0470               	iorwf	___xxtofl@val,w
  4733  012B  1D03               	skipz
  4734  012C  292E               	goto	u2561
  4735  012D  292F               	goto	u2560
  4736  012E                     u2561:
  4737  012E  2938               	goto	l2244
  4738  012F                     u2560:
  4739  012F                     l2240:
  4740  012F  3000               	movlw	0
  4741  0130  00F3               	movwf	?___xxtofl+3
  4742  0131  3000               	movlw	0
  4743  0132  00F2               	movwf	?___xxtofl+2
  4744  0133  3000               	movlw	0
  4745  0134  00F1               	movwf	?___xxtofl+1
  4746  0135  3000               	movlw	0
  4747  0136  00F0               	movwf	?___xxtofl
  4748  0137  29BE               	goto	l839
  4749  0138                     l2244:
  4750  0138  3096               	movlw	150
  4751  0139  00F4               	movwf	??___xxtofl
  4752  013A  0874               	movf	??___xxtofl,w
  4753  013B  00F9               	movwf	___xxtofl@exp
  4754  013C  294A               	goto	l2248
  4755  013D                     l2246:
  4756  013D  3001               	movlw	1
  4757  013E  00F4               	movwf	??___xxtofl
  4758  013F  0874               	movf	??___xxtofl,w
  4759  0140  07F9               	addwf	___xxtofl@exp,f
  4760  0141  3001               	movlw	1
  4761  0142                     u2575:
  4762  0142  1003               	clrc
  4763  0143  0CFD               	rrf	___xxtofl@arg+3,f
  4764  0144  0CFC               	rrf	___xxtofl@arg+2,f
  4765  0145  0CFB               	rrf	___xxtofl@arg+1,f
  4766  0146  0CFA               	rrf	___xxtofl@arg,f
  4767  0147  3EFF               	addlw	-1
  4768  0148  1D03               	skipz
  4769  0149  2942               	goto	u2575
  4770  014A                     l2248:
  4771  014A  30FE               	movlw	254
  4772  014B  057D               	andwf	___xxtofl@arg+3,w
  4773  014C  1D03               	btfss	3,2
  4774  014D  294F               	goto	u2581
  4775  014E  2950               	goto	u2580
  4776  014F                     u2581:
  4777  014F  293D               	goto	l2246
  4778  0150                     u2580:
  4779  0150  296C               	goto	l843
  4780  0151                     l2250:
  4781  0151  3001               	movlw	1
  4782  0152  00F4               	movwf	??___xxtofl
  4783  0153  0874               	movf	??___xxtofl,w
  4784  0154  07F9               	addwf	___xxtofl@exp,f
  4785  0155                     l2252:
  4786  0155  3001               	movlw	1
  4787  0156  07FA               	addwf	___xxtofl@arg,f
  4788  0157  3000               	movlw	0
  4789  0158  1803               	skipnc
  4790  0159  3001               	movlw	1
  4791  015A  07FB               	addwf	___xxtofl@arg+1,f
  4792  015B  3000               	movlw	0
  4793  015C  1803               	skipnc
  4794  015D  3001               	movlw	1
  4795  015E  07FC               	addwf	___xxtofl@arg+2,f
  4796  015F  3000               	movlw	0
  4797  0160  1803               	skipnc
  4798  0161  3001               	movlw	1
  4799  0162  07FD               	addwf	___xxtofl@arg+3,f
  4800  0163                     l2254:
  4801  0163  3001               	movlw	1
  4802  0164                     u2595:
  4803  0164  1003               	clrc
  4804  0165  0CFD               	rrf	___xxtofl@arg+3,f
  4805  0166  0CFC               	rrf	___xxtofl@arg+2,f
  4806  0167  0CFB               	rrf	___xxtofl@arg+1,f
  4807  0168  0CFA               	rrf	___xxtofl@arg,f
  4808  0169  3EFF               	addlw	-1
  4809  016A  1D03               	skipz
  4810  016B  2964               	goto	u2595
  4811  016C                     l843:
  4812  016C  30FF               	movlw	255
  4813  016D  057D               	andwf	___xxtofl@arg+3,w
  4814  016E  1D03               	btfss	3,2
  4815  016F  2971               	goto	u2601
  4816  0170  2972               	goto	u2600
  4817  0171                     u2601:
  4818  0171  2951               	goto	l2250
  4819  0172                     u2600:
  4820  0172  297E               	goto	l2258
  4821  0173                     l2256:
  4822  0173  3001               	movlw	1
  4823  0174  02F9               	subwf	___xxtofl@exp,f
  4824  0175  3001               	movlw	1
  4825  0176  00F4               	movwf	??___xxtofl
  4826  0177                     u2615:
  4827  0177  1003               	clrc
  4828  0178  0DFA               	rlf	___xxtofl@arg,f
  4829  0179  0DFB               	rlf	___xxtofl@arg+1,f
  4830  017A  0DFC               	rlf	___xxtofl@arg+2,f
  4831  017B  0DFD               	rlf	___xxtofl@arg+3,f
  4832  017C  0BF4               	decfsz	??___xxtofl,f
  4833  017D  2977               	goto	u2615
  4834  017E                     l2258:
  4835  017E  1BFC               	btfsc	___xxtofl@arg+2,7
  4836  017F  2981               	goto	u2621
  4837  0180  2982               	goto	u2620
  4838  0181                     u2621:
  4839  0181  2988               	goto	l850
  4840  0182                     u2620:
  4841  0182                     l2260:
  4842  0182  3002               	movlw	2
  4843  0183  0279               	subwf	___xxtofl@exp,w
  4844  0184  1803               	skipnc
  4845  0185  2987               	goto	u2631
  4846  0186  2988               	goto	u2630
  4847  0187                     u2631:
  4848  0187  2973               	goto	l2256
  4849  0188                     u2630:
  4850  0188                     l850:
  4851  0188  1879               	btfsc	___xxtofl@exp,0
  4852  0189  298B               	goto	u2641
  4853  018A  298C               	goto	u2640
  4854  018B                     u2641:
  4855  018B  2994               	goto	l851
  4856  018C                     u2640:
  4857  018C                     l2262:
  4858  018C  30FF               	movlw	255
  4859  018D  05FA               	andwf	___xxtofl@arg,f
  4860  018E  30FF               	movlw	255
  4861  018F  05FB               	andwf	___xxtofl@arg+1,f
  4862  0190  307F               	movlw	127
  4863  0191  05FC               	andwf	___xxtofl@arg+2,f
  4864  0192  30FF               	movlw	255
  4865  0193  05FD               	andwf	___xxtofl@arg+3,f
  4866  0194                     l851:
  4867  0194  1003               	clrc
  4868  0195  0CF9               	rrf	___xxtofl@exp,f
  4869  0196                     l2264:
  4870  0196  0879               	movf	___xxtofl@exp,w
  4871  0197  00F4               	movwf	??___xxtofl
  4872  0198  01F5               	clrf	??___xxtofl+1
  4873  0199  01F6               	clrf	??___xxtofl+2
  4874  019A  01F7               	clrf	??___xxtofl+3
  4875  019B  3018               	movlw	24
  4876  019C                     u2655:
  4877  019C  1003               	clrc
  4878  019D  0DF4               	rlf	??___xxtofl,f
  4879  019E  0DF5               	rlf	??___xxtofl+1,f
  4880  019F  0DF6               	rlf	??___xxtofl+2,f
  4881  01A0  0DF7               	rlf	??___xxtofl+3,f
  4882  01A1                     u2650:
  4883  01A1  3EFF               	addlw	-1
  4884  01A2  1D03               	skipz
  4885  01A3  299C               	goto	u2655
  4886  01A4  0874               	movf	??___xxtofl,w
  4887  01A5  04FA               	iorwf	___xxtofl@arg,f
  4888  01A6  0875               	movf	??___xxtofl+1,w
  4889  01A7  04FB               	iorwf	___xxtofl@arg+1,f
  4890  01A8  0876               	movf	??___xxtofl+2,w
  4891  01A9  04FC               	iorwf	___xxtofl@arg+2,f
  4892  01AA  0877               	movf	??___xxtofl+3,w
  4893  01AB  04FD               	iorwf	___xxtofl@arg+3,f
  4894  01AC                     l2266:
  4895  01AC  0878               	movf	___xxtofl@sign,w
  4896  01AD  1903               	btfsc	3,2
  4897  01AE  29B0               	goto	u2661
  4898  01AF  29B1               	goto	u2660
  4899  01B0                     u2661:
  4900  01B0  29B6               	goto	l2272
  4901  01B1                     u2660:
  4902  01B1                     l2268:
  4903  01B1  1FF3               	btfss	___xxtofl@val+3,7
  4904  01B2  29B4               	goto	u2671
  4905  01B3  29B5               	goto	u2670
  4906  01B4                     u2671:
  4907  01B4  29B6               	goto	l2272
  4908  01B5                     u2670:
  4909  01B5                     l2270:
  4910  01B5  17FD               	bsf	___xxtofl@arg+3,7
  4911  01B6                     l2272:
  4912  01B6  087D               	movf	___xxtofl@arg+3,w
  4913  01B7  00F3               	movwf	?___xxtofl+3
  4914  01B8  087C               	movf	___xxtofl@arg+2,w
  4915  01B9  00F2               	movwf	?___xxtofl+2
  4916  01BA  087B               	movf	___xxtofl@arg+1,w
  4917  01BB  00F1               	movwf	?___xxtofl+1
  4918  01BC  087A               	movf	___xxtofl@arg,w
  4919  01BD  00F0               	movwf	?___xxtofl
  4920  01BE                     l839:
  4921  01BE  0008               	return
  4922  01BF                     __end_of___xxtofl:
  4923                           
  4924                           	psect	text30
  4925  0E43                     __ptext30:	
  4926 ;; *************** function ___fltol *****************
  4927 ;; Defined at:
  4928 ;;		line 43 in file "C:\Program Files\Microchip\xc8\v2.30\pic\sources\c90\common\fltol.c"
  4929 ;; Parameters:    Size  Location     Type
  4930 ;;  f1              4   52[BANK0 ] unsigned char 
  4931 ;; Auto vars:     Size  Location     Type
  4932 ;;  exp1            1   62[BANK0 ] unsigned char 
  4933 ;;  sign1           1   61[BANK0 ] unsigned char 
  4934 ;; Return value:  Size  Location     Type
  4935 ;;                  4   52[BANK0 ] long 
  4936 ;; Registers used:
  4937 ;;		wreg, status,2, status,0
  4938 ;; Tracked objects:
  4939 ;;		On entry : 0/0
  4940 ;;		On exit  : 0/0
  4941 ;;		Unchanged: 0/0
  4942 ;; Data sizes:     COMMON   BANK0   BANK1   BANK3   BANK2
  4943 ;;      Params:         0       4       0       0       0
  4944 ;;      Locals:         0       2       0       0       0
  4945 ;;      Temps:          0       5       0       0       0
  4946 ;;      Totals:         0      11       0       0       0
  4947 ;;Total ram usage:       11 bytes
  4948 ;; Hardware stack levels used:    1
  4949 ;; This function calls:
  4950 ;;		Nothing
  4951 ;; This function is called by:
  4952 ;;		_distance
  4953 ;; This function uses a non-reentrant model
  4954 ;;
  4955                           
  4956                           
  4957                           ;psect for function ___fltol
  4958  0E43                     ___fltol:
  4959  0E43                     l1914:	
  4960                           ;incstack = 0
  4961                           ; Regs used in ___fltol: [wreg+status,2+status,0]
  4962                           
  4963  0E43  1003               	clrc
  4964  0E44  1283               	bcf	3,5	;RP0=0, select bank0
  4965  0E45  1303               	bcf	3,6	;RP1=0, select bank0
  4966  0E46  0D56               	rlf	___fltol@f1+2,w
  4967  0E47  0D57               	rlf	___fltol@f1+3,w
  4968  0E48  00D8               	movwf	??___fltol
  4969  0E49  0858               	movf	??___fltol,w
  4970  0E4A  00DE               	movwf	___fltol@exp1
  4971  0E4B  085E               	movf	___fltol@exp1,w
  4972  0E4C  1D03               	btfss	3,2
  4973  0E4D  2E4F               	goto	u1781
  4974  0E4E  2E50               	goto	u1780
  4975  0E4F                     u1781:
  4976  0E4F  2E59               	goto	l1920
  4977  0E50                     u1780:
  4978  0E50                     l1916:
  4979  0E50  3000               	movlw	0
  4980  0E51  00D7               	movwf	?___fltol+3
  4981  0E52  3000               	movlw	0
  4982  0E53  00D6               	movwf	?___fltol+2
  4983  0E54  3000               	movlw	0
  4984  0E55  00D5               	movwf	?___fltol+1
  4985  0E56  3000               	movlw	0
  4986  0E57  00D4               	movwf	?___fltol
  4987  0E58  2EBE               	goto	l590
  4988  0E59                     l1920:
  4989  0E59  0854               	movf	___fltol@f1,w
  4990  0E5A  00D8               	movwf	??___fltol
  4991  0E5B  0855               	movf	___fltol@f1+1,w
  4992  0E5C  00D9               	movwf	??___fltol+1
  4993  0E5D  0856               	movf	___fltol@f1+2,w
  4994  0E5E  00DA               	movwf	??___fltol+2
  4995  0E5F  0857               	movf	___fltol@f1+3,w
  4996  0E60  00DB               	movwf	??___fltol+3
  4997  0E61  301F               	movlw	31
  4998  0E62                     u1795:
  4999  0E62  1003               	clrc
  5000  0E63  0CDB               	rrf	??___fltol+3,f
  5001  0E64  0CDA               	rrf	??___fltol+2,f
  5002  0E65  0CD9               	rrf	??___fltol+1,f
  5003  0E66  0CD8               	rrf	??___fltol,f
  5004  0E67                     u1790:
  5005  0E67  3EFF               	addlw	-1
  5006  0E68  1D03               	skipz
  5007  0E69  2E62               	goto	u1795
  5008  0E6A  0858               	movf	??___fltol,w
  5009  0E6B  00DC               	movwf	??___fltol+4
  5010  0E6C  085C               	movf	??___fltol+4,w
  5011  0E6D  00DD               	movwf	___fltol@sign1
  5012  0E6E                     l1922:
  5013  0E6E  17D6               	bsf	___fltol@f1+2,7
  5014  0E6F                     l1924:
  5015  0E6F  30FF               	movlw	255
  5016  0E70  05D4               	andwf	___fltol@f1,f
  5017  0E71  30FF               	movlw	255
  5018  0E72  05D5               	andwf	___fltol@f1+1,f
  5019  0E73  30FF               	movlw	255
  5020  0E74  05D6               	andwf	___fltol@f1+2,f
  5021  0E75  3000               	movlw	0
  5022  0E76  05D7               	andwf	___fltol@f1+3,f
  5023  0E77                     l1926:
  5024  0E77  3096               	movlw	150
  5025  0E78  02DE               	subwf	___fltol@exp1,f
  5026  0E79                     l1928:
  5027  0E79  1FDE               	btfss	___fltol@exp1,7
  5028  0E7A  2E7C               	goto	u1801
  5029  0E7B  2E7D               	goto	u1800
  5030  0E7C                     u1801:
  5031  0E7C  2E97               	goto	l1938
  5032  0E7D                     u1800:
  5033  0E7D                     l1930:
  5034  0E7D  085E               	movf	___fltol@exp1,w
  5035  0E7E  3A80               	xorlw	128
  5036  0E7F  3E97               	addlw	151
  5037  0E80  1803               	skipnc
  5038  0E81  2E83               	goto	u1811
  5039  0E82  2E84               	goto	u1810
  5040  0E83                     u1811:
  5041  0E83  2E85               	goto	l1936
  5042  0E84                     u1810:
  5043  0E84  2E50               	goto	l1916
  5044  0E85                     l1936:
  5045  0E85  3001               	movlw	1
  5046  0E86                     u1825:
  5047  0E86  1003               	clrc
  5048  0E87  0CD7               	rrf	___fltol@f1+3,f
  5049  0E88  0CD6               	rrf	___fltol@f1+2,f
  5050  0E89  0CD5               	rrf	___fltol@f1+1,f
  5051  0E8A  0CD4               	rrf	___fltol@f1,f
  5052  0E8B  3EFF               	addlw	-1
  5053  0E8C  1D03               	skipz
  5054  0E8D  2E86               	goto	u1825
  5055  0E8E  3001               	movlw	1
  5056  0E8F  00D8               	movwf	??___fltol
  5057  0E90  0858               	movf	??___fltol,w
  5058  0E91  07DE               	addwf	___fltol@exp1,f
  5059  0E92  1D03               	btfss	3,2
  5060  0E93  2E95               	goto	u1831
  5061  0E94  2E96               	goto	u1830
  5062  0E95                     u1831:
  5063  0E95  2E85               	goto	l1936
  5064  0E96                     u1830:
  5065  0E96  2EAE               	goto	l1946
  5066  0E97                     l1938:
  5067  0E97  3020               	movlw	32
  5068  0E98  025E               	subwf	___fltol@exp1,w
  5069  0E99  1C03               	skipc
  5070  0E9A  2E9C               	goto	u1841
  5071  0E9B  2E9D               	goto	u1840
  5072  0E9C                     u1841:
  5073  0E9C  2EA9               	goto	l597
  5074  0E9D                     u1840:
  5075  0E9D  2E50               	goto	l1916
  5076  0E9E                     l1944:
  5077  0E9E  3001               	movlw	1
  5078  0E9F  00D8               	movwf	??___fltol
  5079  0EA0                     u1855:
  5080  0EA0  1003               	clrc
  5081  0EA1  0DD4               	rlf	___fltol@f1,f
  5082  0EA2  0DD5               	rlf	___fltol@f1+1,f
  5083  0EA3  0DD6               	rlf	___fltol@f1+2,f
  5084  0EA4  0DD7               	rlf	___fltol@f1+3,f
  5085  0EA5  0BD8               	decfsz	??___fltol,f
  5086  0EA6  2EA0               	goto	u1855
  5087  0EA7  3001               	movlw	1
  5088  0EA8  02DE               	subwf	___fltol@exp1,f
  5089  0EA9                     l597:
  5090  0EA9  085E               	movf	___fltol@exp1,w
  5091  0EAA  1D03               	btfss	3,2
  5092  0EAB  2EAD               	goto	u1861
  5093  0EAC  2EAE               	goto	u1860
  5094  0EAD                     u1861:
  5095  0EAD  2E9E               	goto	l1944
  5096  0EAE                     u1860:
  5097  0EAE                     l1946:
  5098  0EAE  085D               	movf	___fltol@sign1,w
  5099  0EAF  1903               	btfsc	3,2
  5100  0EB0  2EB2               	goto	u1871
  5101  0EB1  2EB3               	goto	u1870
  5102  0EB2                     u1871:
  5103  0EB2  2EBE               	goto	l600
  5104  0EB3                     u1870:
  5105  0EB3                     l1948:
  5106  0EB3  09D4               	comf	___fltol@f1,f
  5107  0EB4  09D5               	comf	___fltol@f1+1,f
  5108  0EB5  09D6               	comf	___fltol@f1+2,f
  5109  0EB6  09D7               	comf	___fltol@f1+3,f
  5110  0EB7  0AD4               	incf	___fltol@f1,f
  5111  0EB8  1903               	skipnz
  5112  0EB9  0AD5               	incf	___fltol@f1+1,f
  5113  0EBA  1903               	skipnz
  5114  0EBB  0AD6               	incf	___fltol@f1+2,f
  5115  0EBC  1903               	skipnz
  5116  0EBD  0AD7               	incf	___fltol@f1+3,f
  5117  0EBE                     l600:
  5118  0EBE                     l590:
  5119  0EBE  0008               	return
  5120  0EBF                     __end_of___fltol:
  5121                           
  5122                           	psect	text31
  5123  0489                     __ptext31:	
  5124 ;; *************** function ___flmul *****************
  5125 ;; Defined at:
  5126 ;;		line 8 in file "C:\Program Files\Microchip\xc8\v2.30\pic\sources\c90\common\sprcmul.c"
  5127 ;; Parameters:    Size  Location     Type
  5128 ;;  b               4    0[BANK0 ] long 
  5129 ;;  a               4    4[BANK0 ] long 
  5130 ;; Auto vars:     Size  Location     Type
  5131 ;;  prod            4   20[BANK0 ] struct .
  5132 ;;  grs             4   14[BANK0 ] unsigned long 
  5133 ;;  temp            2   24[BANK0 ] struct .
  5134 ;;  bexp            1   19[BANK0 ] unsigned char 
  5135 ;;  aexp            1   18[BANK0 ] unsigned char 
  5136 ;;  sign            1   13[BANK0 ] unsigned char 
  5137 ;; Return value:  Size  Location     Type
  5138 ;;                  4    0[BANK0 ] unsigned char 
  5139 ;; Registers used:
  5140 ;;		wreg, status,2, status,0, btemp+1, pclath, cstack
  5141 ;; Tracked objects:
  5142 ;;		On entry : 0/0
  5143 ;;		On exit  : 0/0
  5144 ;;		Unchanged: 0/0
  5145 ;; Data sizes:     COMMON   BANK0   BANK1   BANK3   BANK2
  5146 ;;      Params:         0       8       0       0       0
  5147 ;;      Locals:         0      13       0       0       0
  5148 ;;      Temps:          0       5       0       0       0
  5149 ;;      Totals:         0      26       0       0       0
  5150 ;;Total ram usage:       26 bytes
  5151 ;; Hardware stack levels used:    1
  5152 ;; Hardware stack levels required when called:    1
  5153 ;; This function calls:
  5154 ;;		__Umul8_16
  5155 ;; This function is called by:
  5156 ;;		_distance
  5157 ;; This function uses a non-reentrant model
  5158 ;;
  5159                           
  5160                           
  5161                           ;psect for function ___flmul
  5162  0489                     ___flmul:
  5163  0489                     l2092:	
  5164                           ;incstack = 0
  5165                           ; Regs used in ___flmul: [wreg+status,2+status,0+btemp+1+pclath+cstack]
  5166                           
  5167  0489  1283               	bcf	3,5	;RP0=0, select bank0
  5168  048A  1303               	bcf	3,6	;RP1=0, select bank0
  5169  048B  0823               	movf	___flmul@b+3,w
  5170  048C  3980               	andlw	128
  5171  048D  00A8               	movwf	??___flmul
  5172  048E  0828               	movf	??___flmul,w
  5173  048F  00AD               	movwf	___flmul@sign
  5174  0490                     l2094:
  5175  0490  0823               	movf	___flmul@b+3,w
  5176  0491  00A8               	movwf	??___flmul
  5177  0492  0728               	addwf	??___flmul,w
  5178  0493  00A9               	movwf	??___flmul+1
  5179  0494  0829               	movf	??___flmul+1,w
  5180  0495  00B3               	movwf	___flmul@bexp
  5181  0496                     l2096:
  5182  0496  1FA2               	btfss	___flmul@b+2,7
  5183  0497  2C99               	goto	u2171
  5184  0498  2C9A               	goto	u2170
  5185  0499                     u2171:
  5186  0499  2C9B               	goto	l2100
  5187  049A                     u2170:
  5188  049A                     l2098:
  5189  049A  1433               	bsf	___flmul@bexp,0
  5190  049B                     l2100:
  5191  049B  0833               	movf	___flmul@bexp,w
  5192  049C  1903               	btfsc	3,2
  5193  049D  2C9F               	goto	u2181
  5194  049E  2CA0               	goto	u2180
  5195  049F                     u2181:
  5196  049F  2CAF               	goto	l2108
  5197  04A0                     u2180:
  5198  04A0                     l2102:
  5199  04A0  0A33               	incf	___flmul@bexp,w
  5200  04A1  1D03               	btfss	3,2
  5201  04A2  2CA4               	goto	u2191
  5202  04A3  2CA5               	goto	u2190
  5203  04A4                     u2191:
  5204  04A4  2CAD               	goto	l2106
  5205  04A5                     u2190:
  5206  04A5                     l2104:
  5207  04A5  3000               	movlw	0
  5208  04A6  00A3               	movwf	___flmul@b+3
  5209  04A7  3000               	movlw	0
  5210  04A8  00A2               	movwf	___flmul@b+2
  5211  04A9  3000               	movlw	0
  5212  04AA  00A1               	movwf	___flmul@b+1
  5213  04AB  3000               	movlw	0
  5214  04AC  00A0               	movwf	___flmul@b
  5215  04AD                     l2106:
  5216  04AD  17A2               	bsf	___flmul@b+2,7
  5217  04AE  2CB7               	goto	l2110
  5218  04AF                     l2108:
  5219  04AF  3000               	movlw	0
  5220  04B0  00A3               	movwf	___flmul@b+3
  5221  04B1  3000               	movlw	0
  5222  04B2  00A2               	movwf	___flmul@b+2
  5223  04B3  3000               	movlw	0
  5224  04B4  00A1               	movwf	___flmul@b+1
  5225  04B5  3000               	movlw	0
  5226  04B6  00A0               	movwf	___flmul@b
  5227  04B7                     l2110:
  5228  04B7  0827               	movf	___flmul@a+3,w
  5229  04B8  3980               	andlw	128
  5230  04B9  00A8               	movwf	??___flmul
  5231  04BA  0828               	movf	??___flmul,w
  5232  04BB  06AD               	xorwf	___flmul@sign,f
  5233  04BC                     l2112:
  5234  04BC  0827               	movf	___flmul@a+3,w
  5235  04BD  00A8               	movwf	??___flmul
  5236  04BE  0728               	addwf	??___flmul,w
  5237  04BF  00A9               	movwf	??___flmul+1
  5238  04C0  0829               	movf	??___flmul+1,w
  5239  04C1  00B2               	movwf	___flmul@aexp
  5240  04C2                     l2114:
  5241  04C2  1FA6               	btfss	___flmul@a+2,7
  5242  04C3  2CC5               	goto	u2201
  5243  04C4  2CC6               	goto	u2200
  5244  04C5                     u2201:
  5245  04C5  2CC7               	goto	l2118
  5246  04C6                     u2200:
  5247  04C6                     l2116:
  5248  04C6  1432               	bsf	___flmul@aexp,0
  5249  04C7                     l2118:
  5250  04C7  0832               	movf	___flmul@aexp,w
  5251  04C8  1903               	btfsc	3,2
  5252  04C9  2CCB               	goto	u2211
  5253  04CA  2CCC               	goto	u2210
  5254  04CB                     u2211:
  5255  04CB  2CDB               	goto	l2126
  5256  04CC                     u2210:
  5257  04CC                     l2120:
  5258  04CC  0A32               	incf	___flmul@aexp,w
  5259  04CD  1D03               	btfss	3,2
  5260  04CE  2CD0               	goto	u2221
  5261  04CF  2CD1               	goto	u2220
  5262  04D0                     u2221:
  5263  04D0  2CD9               	goto	l2124
  5264  04D1                     u2220:
  5265  04D1                     l2122:
  5266  04D1  3000               	movlw	0
  5267  04D2  00A7               	movwf	___flmul@a+3
  5268  04D3  3000               	movlw	0
  5269  04D4  00A6               	movwf	___flmul@a+2
  5270  04D5  3000               	movlw	0
  5271  04D6  00A5               	movwf	___flmul@a+1
  5272  04D7  3000               	movlw	0
  5273  04D8  00A4               	movwf	___flmul@a
  5274  04D9                     l2124:
  5275  04D9  17A6               	bsf	___flmul@a+2,7
  5276  04DA  2CE3               	goto	l2128
  5277  04DB                     l2126:
  5278  04DB  3000               	movlw	0
  5279  04DC  00A7               	movwf	___flmul@a+3
  5280  04DD  3000               	movlw	0
  5281  04DE  00A6               	movwf	___flmul@a+2
  5282  04DF  3000               	movlw	0
  5283  04E0  00A5               	movwf	___flmul@a+1
  5284  04E1  3000               	movlw	0
  5285  04E2  00A4               	movwf	___flmul@a
  5286  04E3                     l2128:
  5287  04E3  0832               	movf	___flmul@aexp,w
  5288  04E4  1903               	btfsc	3,2
  5289  04E5  2CE7               	goto	u2231
  5290  04E6  2CE8               	goto	u2230
  5291  04E7                     u2231:
  5292  04E7  2CED               	goto	l2132
  5293  04E8                     u2230:
  5294  04E8                     l2130:
  5295  04E8  0833               	movf	___flmul@bexp,w
  5296  04E9  1D03               	btfss	3,2
  5297  04EA  2CEC               	goto	u2241
  5298  04EB  2CED               	goto	u2240
  5299  04EC                     u2241:
  5300  04EC  2CF6               	goto	l2136
  5301  04ED                     u2240:
  5302  04ED                     l2132:
  5303  04ED  3000               	movlw	0
  5304  04EE  00A3               	movwf	?___flmul+3
  5305  04EF  3000               	movlw	0
  5306  04F0  00A2               	movwf	?___flmul+2
  5307  04F1  3000               	movlw	0
  5308  04F2  00A1               	movwf	?___flmul+1
  5309  04F3  3000               	movlw	0
  5310  04F4  00A0               	movwf	?___flmul
  5311  04F5  2FE9               	goto	l793
  5312  04F6                     l2136:
  5313  04F6  0820               	movf	___flmul@b,w
  5314  04F7  00A8               	movwf	??___flmul
  5315  04F8  0828               	movf	??___flmul,w
  5316  04F9  00F0               	movwf	__Umul8_16@multiplicand
  5317  04FA  0826               	movf	___flmul@a+2,w
  5318  04FB  120A  158A  2245  120A  118A  	fcall	__Umul8_16
  5319  0500  0871               	movf	?__Umul8_16+1,w
  5320  0501  1283               	bcf	3,5	;RP0=0, select bank0
  5321  0502  1303               	bcf	3,6	;RP1=0, select bank0
  5322  0503  00B9               	movwf	___flmul@temp+1
  5323  0504  0870               	movf	?__Umul8_16,w
  5324  0505  00B8               	movwf	___flmul@temp
  5325  0506                     l2138:
  5326  0506  0838               	movf	___flmul@temp,w
  5327  0507  00A8               	movwf	??___flmul
  5328  0508  01A9               	clrf	??___flmul+1
  5329  0509  01AA               	clrf	??___flmul+2
  5330  050A  01AB               	clrf	??___flmul+3
  5331  050B  082B               	movf	??___flmul+3,w
  5332  050C  00B1               	movwf	___flmul@grs+3
  5333  050D  082A               	movf	??___flmul+2,w
  5334  050E  00B0               	movwf	___flmul@grs+2
  5335  050F  0829               	movf	??___flmul+1,w
  5336  0510  00AF               	movwf	___flmul@grs+1
  5337  0511  0828               	movf	??___flmul,w
  5338  0512  00AE               	movwf	___flmul@grs
  5339  0513                     l2140:
  5340  0513  0839               	movf	___flmul@temp+1,w
  5341  0514  00A8               	movwf	??___flmul
  5342  0515  01A9               	clrf	??___flmul+1
  5343  0516  01AA               	clrf	??___flmul+2
  5344  0517  01AB               	clrf	??___flmul+3
  5345  0518  082B               	movf	??___flmul+3,w
  5346  0519  00B7               	movwf	___flmul@prod+3
  5347  051A  082A               	movf	??___flmul+2,w
  5348  051B  00B6               	movwf	___flmul@prod+2
  5349  051C  0829               	movf	??___flmul+1,w
  5350  051D  00B5               	movwf	___flmul@prod+1
  5351  051E  0828               	movf	??___flmul,w
  5352  051F  00B4               	movwf	___flmul@prod
  5353  0520  0821               	movf	___flmul@b+1,w
  5354  0521  00A8               	movwf	??___flmul
  5355  0522  0828               	movf	??___flmul,w
  5356  0523  00F0               	movwf	__Umul8_16@multiplicand
  5357  0524  0825               	movf	___flmul@a+1,w
  5358  0525  120A  158A  2245  120A  118A  	fcall	__Umul8_16
  5359  052A  0871               	movf	?__Umul8_16+1,w
  5360  052B  1283               	bcf	3,5	;RP0=0, select bank0
  5361  052C  1303               	bcf	3,6	;RP1=0, select bank0
  5362  052D  00B9               	movwf	___flmul@temp+1
  5363  052E  0870               	movf	?__Umul8_16,w
  5364  052F  00B8               	movwf	___flmul@temp
  5365  0530                     l2142:
  5366  0530  0838               	movf	___flmul@temp,w
  5367  0531  00A8               	movwf	??___flmul
  5368  0532  01A9               	clrf	??___flmul+1
  5369  0533  01AA               	clrf	??___flmul+2
  5370  0534  01AB               	clrf	??___flmul+3
  5371  0535  0828               	movf	??___flmul,w
  5372  0536  07AE               	addwf	___flmul@grs,f
  5373  0537  0829               	movf	??___flmul+1,w
  5374  0538  1103               	clrz
  5375  0539  1803               	skipnc
  5376  053A  3E01               	addlw	1
  5377  053B  1903               	skipnz
  5378  053C  2D3E               	goto	u2251
  5379  053D  07AF               	addwf	___flmul@grs+1,f
  5380  053E                     u2251:
  5381  053E  082A               	movf	??___flmul+2,w
  5382  053F  1103               	clrz
  5383  0540  1803               	skipnc
  5384  0541  3E01               	addlw	1
  5385  0542  1903               	skipnz
  5386  0543  2D45               	goto	u2252
  5387  0544  07B0               	addwf	___flmul@grs+2,f
  5388  0545                     u2252:
  5389  0545  082B               	movf	??___flmul+3,w
  5390  0546  1103               	clrz
  5391  0547  1803               	skipnc
  5392  0548  3E01               	addlw	1
  5393  0549  1903               	skipnz
  5394  054A  2D4C               	goto	u2253
  5395  054B  07B1               	addwf	___flmul@grs+3,f
  5396  054C                     u2253:
  5397  054C                     l2144:
  5398  054C  0839               	movf	___flmul@temp+1,w
  5399  054D  00A8               	movwf	??___flmul
  5400  054E  01A9               	clrf	??___flmul+1
  5401  054F  01AA               	clrf	??___flmul+2
  5402  0550  01AB               	clrf	??___flmul+3
  5403  0551  0828               	movf	??___flmul,w
  5404  0552  07B4               	addwf	___flmul@prod,f
  5405  0553  0829               	movf	??___flmul+1,w
  5406  0554  1103               	clrz
  5407  0555  1803               	skipnc
  5408  0556  3E01               	addlw	1
  5409  0557  1903               	skipnz
  5410  0558  2D5A               	goto	u2261
  5411  0559  07B5               	addwf	___flmul@prod+1,f
  5412  055A                     u2261:
  5413  055A  082A               	movf	??___flmul+2,w
  5414  055B  1103               	clrz
  5415  055C  1803               	skipnc
  5416  055D  3E01               	addlw	1
  5417  055E  1903               	skipnz
  5418  055F  2D61               	goto	u2262
  5419  0560  07B6               	addwf	___flmul@prod+2,f
  5420  0561                     u2262:
  5421  0561  082B               	movf	??___flmul+3,w
  5422  0562  1103               	clrz
  5423  0563  1803               	skipnc
  5424  0564  3E01               	addlw	1
  5425  0565  1903               	skipnz
  5426  0566  2D68               	goto	u2263
  5427  0567  07B7               	addwf	___flmul@prod+3,f
  5428  0568                     u2263:
  5429  0568  0822               	movf	___flmul@b+2,w
  5430  0569  00A8               	movwf	??___flmul
  5431  056A  0828               	movf	??___flmul,w
  5432  056B  00F0               	movwf	__Umul8_16@multiplicand
  5433  056C  0824               	movf	___flmul@a,w
  5434  056D  120A  158A  2245  120A  118A  	fcall	__Umul8_16
  5435  0572  0871               	movf	?__Umul8_16+1,w
  5436  0573  1283               	bcf	3,5	;RP0=0, select bank0
  5437  0574  1303               	bcf	3,6	;RP1=0, select bank0
  5438  0575  00B9               	movwf	___flmul@temp+1
  5439  0576  0870               	movf	?__Umul8_16,w
  5440  0577  00B8               	movwf	___flmul@temp
  5441  0578                     l2146:
  5442  0578  0838               	movf	___flmul@temp,w
  5443  0579  00A8               	movwf	??___flmul
  5444  057A  01A9               	clrf	??___flmul+1
  5445  057B  01AA               	clrf	??___flmul+2
  5446  057C  01AB               	clrf	??___flmul+3
  5447  057D  0828               	movf	??___flmul,w
  5448  057E  07AE               	addwf	___flmul@grs,f
  5449  057F  0829               	movf	??___flmul+1,w
  5450  0580  1103               	clrz
  5451  0581  1803               	skipnc
  5452  0582  3E01               	addlw	1
  5453  0583  1903               	skipnz
  5454  0584  2D86               	goto	u2271
  5455  0585  07AF               	addwf	___flmul@grs+1,f
  5456  0586                     u2271:
  5457  0586  082A               	movf	??___flmul+2,w
  5458  0587  1103               	clrz
  5459  0588  1803               	skipnc
  5460  0589  3E01               	addlw	1
  5461  058A  1903               	skipnz
  5462  058B  2D8D               	goto	u2272
  5463  058C  07B0               	addwf	___flmul@grs+2,f
  5464  058D                     u2272:
  5465  058D  082B               	movf	??___flmul+3,w
  5466  058E  1103               	clrz
  5467  058F  1803               	skipnc
  5468  0590  3E01               	addlw	1
  5469  0591  1903               	skipnz
  5470  0592  2D94               	goto	u2273
  5471  0593  07B1               	addwf	___flmul@grs+3,f
  5472  0594                     u2273:
  5473  0594                     l2148:
  5474  0594  0839               	movf	___flmul@temp+1,w
  5475  0595  00A8               	movwf	??___flmul
  5476  0596  01A9               	clrf	??___flmul+1
  5477  0597  01AA               	clrf	??___flmul+2
  5478  0598  01AB               	clrf	??___flmul+3
  5479  0599  0828               	movf	??___flmul,w
  5480  059A  07B4               	addwf	___flmul@prod,f
  5481  059B  0829               	movf	??___flmul+1,w
  5482  059C  1103               	clrz
  5483  059D  1803               	skipnc
  5484  059E  3E01               	addlw	1
  5485  059F  1903               	skipnz
  5486  05A0  2DA2               	goto	u2281
  5487  05A1  07B5               	addwf	___flmul@prod+1,f
  5488  05A2                     u2281:
  5489  05A2  082A               	movf	??___flmul+2,w
  5490  05A3  1103               	clrz
  5491  05A4  1803               	skipnc
  5492  05A5  3E01               	addlw	1
  5493  05A6  1903               	skipnz
  5494  05A7  2DA9               	goto	u2282
  5495  05A8  07B6               	addwf	___flmul@prod+2,f
  5496  05A9                     u2282:
  5497  05A9  082B               	movf	??___flmul+3,w
  5498  05AA  1103               	clrz
  5499  05AB  1803               	skipnc
  5500  05AC  3E01               	addlw	1
  5501  05AD  1903               	skipnz
  5502  05AE  2DB0               	goto	u2283
  5503  05AF  07B7               	addwf	___flmul@prod+3,f
  5504  05B0                     u2283:
  5505  05B0                     l2150:
  5506  05B0  3008               	movlw	8
  5507  05B1  00A8               	movwf	??___flmul
  5508  05B2                     u2295:
  5509  05B2  1003               	clrc
  5510  05B3  0DAE               	rlf	___flmul@grs,f
  5511  05B4  0DAF               	rlf	___flmul@grs+1,f
  5512  05B5  0DB0               	rlf	___flmul@grs+2,f
  5513  05B6  0DB1               	rlf	___flmul@grs+3,f
  5514  05B7  0BA8               	decfsz	??___flmul,f
  5515  05B8  2DB2               	goto	u2295
  5516  05B9                     l2152:
  5517  05B9  0821               	movf	___flmul@b+1,w
  5518  05BA  00A8               	movwf	??___flmul
  5519  05BB  0828               	movf	??___flmul,w
  5520  05BC  00F0               	movwf	__Umul8_16@multiplicand
  5521  05BD  0824               	movf	___flmul@a,w
  5522  05BE  120A  158A  2245  120A  118A  	fcall	__Umul8_16
  5523  05C3  0871               	movf	?__Umul8_16+1,w
  5524  05C4  1283               	bcf	3,5	;RP0=0, select bank0
  5525  05C5  1303               	bcf	3,6	;RP1=0, select bank0
  5526  05C6  00B9               	movwf	___flmul@temp+1
  5527  05C7  0870               	movf	?__Umul8_16,w
  5528  05C8  00B8               	movwf	___flmul@temp
  5529  05C9                     l2154:
  5530  05C9  0838               	movf	___flmul@temp,w
  5531  05CA  00A8               	movwf	??___flmul
  5532  05CB  0839               	movf	___flmul@temp+1,w
  5533  05CC  00A9               	movwf	??___flmul+1
  5534  05CD  01AA               	clrf	??___flmul+2
  5535  05CE  01AB               	clrf	??___flmul+3
  5536  05CF  0828               	movf	??___flmul,w
  5537  05D0  07AE               	addwf	___flmul@grs,f
  5538  05D1  0829               	movf	??___flmul+1,w
  5539  05D2  1103               	clrz
  5540  05D3  1803               	skipnc
  5541  05D4  3E01               	addlw	1
  5542  05D5  1903               	skipnz
  5543  05D6  2DD8               	goto	u2301
  5544  05D7  07AF               	addwf	___flmul@grs+1,f
  5545  05D8                     u2301:
  5546  05D8  082A               	movf	??___flmul+2,w
  5547  05D9  1103               	clrz
  5548  05DA  1803               	skipnc
  5549  05DB  3E01               	addlw	1
  5550  05DC  1903               	skipnz
  5551  05DD  2DDF               	goto	u2302
  5552  05DE  07B0               	addwf	___flmul@grs+2,f
  5553  05DF                     u2302:
  5554  05DF  082B               	movf	??___flmul+3,w
  5555  05E0  1103               	clrz
  5556  05E1  1803               	skipnc
  5557  05E2  3E01               	addlw	1
  5558  05E3  1903               	skipnz
  5559  05E4  2DE6               	goto	u2303
  5560  05E5  07B1               	addwf	___flmul@grs+3,f
  5561  05E6                     u2303:
  5562  05E6                     l2156:
  5563  05E6  0820               	movf	___flmul@b,w
  5564  05E7  00A8               	movwf	??___flmul
  5565  05E8  0828               	movf	??___flmul,w
  5566  05E9  00F0               	movwf	__Umul8_16@multiplicand
  5567  05EA  0825               	movf	___flmul@a+1,w
  5568  05EB  120A  158A  2245  120A  118A  	fcall	__Umul8_16
  5569  05F0  0871               	movf	?__Umul8_16+1,w
  5570  05F1  1283               	bcf	3,5	;RP0=0, select bank0
  5571  05F2  1303               	bcf	3,6	;RP1=0, select bank0
  5572  05F3  00B9               	movwf	___flmul@temp+1
  5573  05F4  0870               	movf	?__Umul8_16,w
  5574  05F5  00B8               	movwf	___flmul@temp
  5575  05F6                     l2158:
  5576  05F6  0838               	movf	___flmul@temp,w
  5577  05F7  00A8               	movwf	??___flmul
  5578  05F8  0839               	movf	___flmul@temp+1,w
  5579  05F9  00A9               	movwf	??___flmul+1
  5580  05FA  01AA               	clrf	??___flmul+2
  5581  05FB  01AB               	clrf	??___flmul+3
  5582  05FC  0828               	movf	??___flmul,w
  5583  05FD  07AE               	addwf	___flmul@grs,f
  5584  05FE  0829               	movf	??___flmul+1,w
  5585  05FF  1103               	clrz
  5586  0600  1803               	skipnc
  5587  0601  3E01               	addlw	1
  5588  0602  1903               	skipnz
  5589  0603  2E05               	goto	u2311
  5590  0604  07AF               	addwf	___flmul@grs+1,f
  5591  0605                     u2311:
  5592  0605  082A               	movf	??___flmul+2,w
  5593  0606  1103               	clrz
  5594  0607  1803               	skipnc
  5595  0608  3E01               	addlw	1
  5596  0609  1903               	skipnz
  5597  060A  2E0C               	goto	u2312
  5598  060B  07B0               	addwf	___flmul@grs+2,f
  5599  060C                     u2312:
  5600  060C  082B               	movf	??___flmul+3,w
  5601  060D  1103               	clrz
  5602  060E  1803               	skipnc
  5603  060F  3E01               	addlw	1
  5604  0610  1903               	skipnz
  5605  0611  2E13               	goto	u2313
  5606  0612  07B1               	addwf	___flmul@grs+3,f
  5607  0613                     u2313:
  5608  0613                     l2160:
  5609  0613  3008               	movlw	8
  5610  0614  00A8               	movwf	??___flmul
  5611  0615                     u2325:
  5612  0615  1003               	clrc
  5613  0616  0DAE               	rlf	___flmul@grs,f
  5614  0617  0DAF               	rlf	___flmul@grs+1,f
  5615  0618  0DB0               	rlf	___flmul@grs+2,f
  5616  0619  0DB1               	rlf	___flmul@grs+3,f
  5617  061A  0BA8               	decfsz	??___flmul,f
  5618  061B  2E15               	goto	u2325
  5619  061C  0820               	movf	___flmul@b,w
  5620  061D  00A8               	movwf	??___flmul
  5621  061E  0828               	movf	??___flmul,w
  5622  061F  00F0               	movwf	__Umul8_16@multiplicand
  5623  0620  0824               	movf	___flmul@a,w
  5624  0621  120A  158A  2245  120A  118A  	fcall	__Umul8_16
  5625  0626  0871               	movf	?__Umul8_16+1,w
  5626  0627  1283               	bcf	3,5	;RP0=0, select bank0
  5627  0628  1303               	bcf	3,6	;RP1=0, select bank0
  5628  0629  00B9               	movwf	___flmul@temp+1
  5629  062A  0870               	movf	?__Umul8_16,w
  5630  062B  00B8               	movwf	___flmul@temp
  5631  062C                     l2162:
  5632  062C  0838               	movf	___flmul@temp,w
  5633  062D  00A8               	movwf	??___flmul
  5634  062E  0839               	movf	___flmul@temp+1,w
  5635  062F  00A9               	movwf	??___flmul+1
  5636  0630  01AA               	clrf	??___flmul+2
  5637  0631  01AB               	clrf	??___flmul+3
  5638  0632  0828               	movf	??___flmul,w
  5639  0633  07AE               	addwf	___flmul@grs,f
  5640  0634  0829               	movf	??___flmul+1,w
  5641  0635  1103               	clrz
  5642  0636  1803               	skipnc
  5643  0637  3E01               	addlw	1
  5644  0638  1903               	skipnz
  5645  0639  2E3B               	goto	u2331
  5646  063A  07AF               	addwf	___flmul@grs+1,f
  5647  063B                     u2331:
  5648  063B  082A               	movf	??___flmul+2,w
  5649  063C  1103               	clrz
  5650  063D  1803               	skipnc
  5651  063E  3E01               	addlw	1
  5652  063F  1903               	skipnz
  5653  0640  2E42               	goto	u2332
  5654  0641  07B0               	addwf	___flmul@grs+2,f
  5655  0642                     u2332:
  5656  0642  082B               	movf	??___flmul+3,w
  5657  0643  1103               	clrz
  5658  0644  1803               	skipnc
  5659  0645  3E01               	addlw	1
  5660  0646  1903               	skipnz
  5661  0647  2E49               	goto	u2333
  5662  0648  07B1               	addwf	___flmul@grs+3,f
  5663  0649                     u2333:
  5664  0649                     l2164:
  5665  0649  0821               	movf	___flmul@b+1,w
  5666  064A  00A8               	movwf	??___flmul
  5667  064B  0828               	movf	??___flmul,w
  5668  064C  00F0               	movwf	__Umul8_16@multiplicand
  5669  064D  0826               	movf	___flmul@a+2,w
  5670  064E  120A  158A  2245  120A  118A  	fcall	__Umul8_16
  5671  0653  0871               	movf	?__Umul8_16+1,w
  5672  0654  1283               	bcf	3,5	;RP0=0, select bank0
  5673  0655  1303               	bcf	3,6	;RP1=0, select bank0
  5674  0656  00B9               	movwf	___flmul@temp+1
  5675  0657  0870               	movf	?__Umul8_16,w
  5676  0658  00B8               	movwf	___flmul@temp
  5677  0659  0838               	movf	___flmul@temp,w
  5678  065A  00A8               	movwf	??___flmul
  5679  065B  0839               	movf	___flmul@temp+1,w
  5680  065C  00A9               	movwf	??___flmul+1
  5681  065D  01AA               	clrf	??___flmul+2
  5682  065E  01AB               	clrf	??___flmul+3
  5683  065F  0828               	movf	??___flmul,w
  5684  0660  07B4               	addwf	___flmul@prod,f
  5685  0661  0829               	movf	??___flmul+1,w
  5686  0662  1103               	clrz
  5687  0663  1803               	skipnc
  5688  0664  3E01               	addlw	1
  5689  0665  1903               	skipnz
  5690  0666  2E68               	goto	u2341
  5691  0667  07B5               	addwf	___flmul@prod+1,f
  5692  0668                     u2341:
  5693  0668  082A               	movf	??___flmul+2,w
  5694  0669  1103               	clrz
  5695  066A  1803               	skipnc
  5696  066B  3E01               	addlw	1
  5697  066C  1903               	skipnz
  5698  066D  2E6F               	goto	u2342
  5699  066E  07B6               	addwf	___flmul@prod+2,f
  5700  066F                     u2342:
  5701  066F  082B               	movf	??___flmul+3,w
  5702  0670  1103               	clrz
  5703  0671  1803               	skipnc
  5704  0672  3E01               	addlw	1
  5705  0673  1903               	skipnz
  5706  0674  2E76               	goto	u2343
  5707  0675  07B7               	addwf	___flmul@prod+3,f
  5708  0676                     u2343:
  5709  0676                     l2166:
  5710  0676  0822               	movf	___flmul@b+2,w
  5711  0677  00A8               	movwf	??___flmul
  5712  0678  0828               	movf	??___flmul,w
  5713  0679  00F0               	movwf	__Umul8_16@multiplicand
  5714  067A  0825               	movf	___flmul@a+1,w
  5715  067B  120A  158A  2245  120A  118A  	fcall	__Umul8_16
  5716  0680  0871               	movf	?__Umul8_16+1,w
  5717  0681  1283               	bcf	3,5	;RP0=0, select bank0
  5718  0682  1303               	bcf	3,6	;RP1=0, select bank0
  5719  0683  00B9               	movwf	___flmul@temp+1
  5720  0684  0870               	movf	?__Umul8_16,w
  5721  0685  00B8               	movwf	___flmul@temp
  5722  0686                     l2168:
  5723  0686  0838               	movf	___flmul@temp,w
  5724  0687  00A8               	movwf	??___flmul
  5725  0688  0839               	movf	___flmul@temp+1,w
  5726  0689  00A9               	movwf	??___flmul+1
  5727  068A  01AA               	clrf	??___flmul+2
  5728  068B  01AB               	clrf	??___flmul+3
  5729  068C  0828               	movf	??___flmul,w
  5730  068D  07B4               	addwf	___flmul@prod,f
  5731  068E  0829               	movf	??___flmul+1,w
  5732  068F  1103               	clrz
  5733  0690  1803               	skipnc
  5734  0691  3E01               	addlw	1
  5735  0692  1903               	skipnz
  5736  0693  2E95               	goto	u2351
  5737  0694  07B5               	addwf	___flmul@prod+1,f
  5738  0695                     u2351:
  5739  0695  082A               	movf	??___flmul+2,w
  5740  0696  1103               	clrz
  5741  0697  1803               	skipnc
  5742  0698  3E01               	addlw	1
  5743  0699  1903               	skipnz
  5744  069A  2E9C               	goto	u2352
  5745  069B  07B6               	addwf	___flmul@prod+2,f
  5746  069C                     u2352:
  5747  069C  082B               	movf	??___flmul+3,w
  5748  069D  1103               	clrz
  5749  069E  1803               	skipnc
  5750  069F  3E01               	addlw	1
  5751  06A0  1903               	skipnz
  5752  06A1  2EA3               	goto	u2353
  5753  06A2  07B7               	addwf	___flmul@prod+3,f
  5754  06A3                     u2353:
  5755  06A3  0822               	movf	___flmul@b+2,w
  5756  06A4  00A8               	movwf	??___flmul
  5757  06A5  0828               	movf	??___flmul,w
  5758  06A6  00F0               	movwf	__Umul8_16@multiplicand
  5759  06A7  0826               	movf	___flmul@a+2,w
  5760  06A8  120A  158A  2245  120A  118A  	fcall	__Umul8_16
  5761  06AD  0871               	movf	?__Umul8_16+1,w
  5762  06AE  1283               	bcf	3,5	;RP0=0, select bank0
  5763  06AF  1303               	bcf	3,6	;RP1=0, select bank0
  5764  06B0  00B9               	movwf	___flmul@temp+1
  5765  06B1  0870               	movf	?__Umul8_16,w
  5766  06B2  00B8               	movwf	___flmul@temp
  5767  06B3                     l2170:
  5768  06B3  0838               	movf	___flmul@temp,w
  5769  06B4  00A8               	movwf	??___flmul
  5770  06B5  0839               	movf	___flmul@temp+1,w
  5771  06B6  00A9               	movwf	??___flmul+1
  5772  06B7  01AA               	clrf	??___flmul+2
  5773  06B8  01AB               	clrf	??___flmul+3
  5774  06B9  3008               	movlw	8
  5775  06BA                     u2365:
  5776  06BA  1003               	clrc
  5777  06BB  0DA8               	rlf	??___flmul,f
  5778  06BC  0DA9               	rlf	??___flmul+1,f
  5779  06BD  0DAA               	rlf	??___flmul+2,f
  5780  06BE  0DAB               	rlf	??___flmul+3,f
  5781  06BF                     u2360:
  5782  06BF  3EFF               	addlw	-1
  5783  06C0  1D03               	skipz
  5784  06C1  2EBA               	goto	u2365
  5785  06C2  0828               	movf	??___flmul,w
  5786  06C3  07B4               	addwf	___flmul@prod,f
  5787  06C4  0829               	movf	??___flmul+1,w
  5788  06C5  1103               	clrz
  5789  06C6  1803               	skipnc
  5790  06C7  3E01               	addlw	1
  5791  06C8  1903               	skipnz
  5792  06C9  2ECB               	goto	u2371
  5793  06CA  07B5               	addwf	___flmul@prod+1,f
  5794  06CB                     u2371:
  5795  06CB  082A               	movf	??___flmul+2,w
  5796  06CC  1103               	clrz
  5797  06CD  1803               	skipnc
  5798  06CE  3E01               	addlw	1
  5799  06CF  1903               	skipnz
  5800  06D0  2ED2               	goto	u2372
  5801  06D1  07B6               	addwf	___flmul@prod+2,f
  5802  06D2                     u2372:
  5803  06D2  082B               	movf	??___flmul+3,w
  5804  06D3  1103               	clrz
  5805  06D4  1803               	skipnc
  5806  06D5  3E01               	addlw	1
  5807  06D6  1903               	skipnz
  5808  06D7  2ED9               	goto	u2373
  5809  06D8  07B7               	addwf	___flmul@prod+3,f
  5810  06D9                     u2373:
  5811  06D9                     l2172:
  5812  06D9  082E               	movf	___flmul@grs,w
  5813  06DA  00A8               	movwf	??___flmul
  5814  06DB  082F               	movf	___flmul@grs+1,w
  5815  06DC  00A9               	movwf	??___flmul+1
  5816  06DD  0830               	movf	___flmul@grs+2,w
  5817  06DE  00AA               	movwf	??___flmul+2
  5818  06DF  0831               	movf	___flmul@grs+3,w
  5819  06E0  00AB               	movwf	??___flmul+3
  5820  06E1  3018               	movlw	24
  5821  06E2                     u2385:
  5822  06E2  1003               	clrc
  5823  06E3  0CAB               	rrf	??___flmul+3,f
  5824  06E4  0CAA               	rrf	??___flmul+2,f
  5825  06E5  0CA9               	rrf	??___flmul+1,f
  5826  06E6  0CA8               	rrf	??___flmul,f
  5827  06E7                     u2380:
  5828  06E7  3EFF               	addlw	-1
  5829  06E8  1D03               	skipz
  5830  06E9  2EE2               	goto	u2385
  5831  06EA  0828               	movf	??___flmul,w
  5832  06EB  07B4               	addwf	___flmul@prod,f
  5833  06EC  0829               	movf	??___flmul+1,w
  5834  06ED  1103               	clrz
  5835  06EE  1803               	skipnc
  5836  06EF  3E01               	addlw	1
  5837  06F0  1903               	skipnz
  5838  06F1  2EF3               	goto	u2391
  5839  06F2  07B5               	addwf	___flmul@prod+1,f
  5840  06F3                     u2391:
  5841  06F3  082A               	movf	??___flmul+2,w
  5842  06F4  1103               	clrz
  5843  06F5  1803               	skipnc
  5844  06F6  3E01               	addlw	1
  5845  06F7  1903               	skipnz
  5846  06F8  2EFA               	goto	u2392
  5847  06F9  07B6               	addwf	___flmul@prod+2,f
  5848  06FA                     u2392:
  5849  06FA  082B               	movf	??___flmul+3,w
  5850  06FB  1103               	clrz
  5851  06FC  1803               	skipnc
  5852  06FD  3E01               	addlw	1
  5853  06FE  1903               	skipnz
  5854  06FF  2F01               	goto	u2393
  5855  0700  07B7               	addwf	___flmul@prod+3,f
  5856  0701                     u2393:
  5857  0701                     l2174:
  5858  0701  3008               	movlw	8
  5859  0702  00A8               	movwf	??___flmul
  5860  0703                     u2405:
  5861  0703  1003               	clrc
  5862  0704  0DAE               	rlf	___flmul@grs,f
  5863  0705  0DAF               	rlf	___flmul@grs+1,f
  5864  0706  0DB0               	rlf	___flmul@grs+2,f
  5865  0707  0DB1               	rlf	___flmul@grs+3,f
  5866  0708  0BA8               	decfsz	??___flmul,f
  5867  0709  2F03               	goto	u2405
  5868  070A                     l2176:
  5869  070A  0833               	movf	___flmul@bexp,w
  5870  070B  0732               	addwf	___flmul@aexp,w
  5871  070C  00A8               	movwf	??___flmul
  5872  070D  01A9               	clrf	??___flmul+1
  5873  070E  0DA9               	rlf	??___flmul+1,f
  5874  070F  0828               	movf	??___flmul,w
  5875  0710  3E82               	addlw	130
  5876  0711  00B8               	movwf	___flmul@temp
  5877  0712  0829               	movf	??___flmul+1,w
  5878  0713  1803               	skipnc
  5879  0714  3E01               	addlw	1
  5880  0715  3EFF               	addlw	255
  5881  0716  00B9               	movwf	___flmul@temp+1
  5882  0717  2F35               	goto	l2188
  5883  0718                     l2178:
  5884  0718  3001               	movlw	1
  5885  0719  00A8               	movwf	??___flmul
  5886  071A                     u2415:
  5887  071A  1003               	clrc
  5888  071B  0DB4               	rlf	___flmul@prod,f
  5889  071C  0DB5               	rlf	___flmul@prod+1,f
  5890  071D  0DB6               	rlf	___flmul@prod+2,f
  5891  071E  0DB7               	rlf	___flmul@prod+3,f
  5892  071F  0BA8               	decfsz	??___flmul,f
  5893  0720  2F1A               	goto	u2415
  5894  0721                     l2180:
  5895  0721  1FB1               	btfss	___flmul@grs+3,7
  5896  0722  2F24               	goto	u2421
  5897  0723  2F25               	goto	u2420
  5898  0724                     u2421:
  5899  0724  2F26               	goto	l2184
  5900  0725                     u2420:
  5901  0725                     l2182:
  5902  0725  1434               	bsf	___flmul@prod,0
  5903  0726                     l2184:
  5904  0726  3001               	movlw	1
  5905  0727  00A8               	movwf	??___flmul
  5906  0728                     u2435:
  5907  0728  1003               	clrc
  5908  0729  0DAE               	rlf	___flmul@grs,f
  5909  072A  0DAF               	rlf	___flmul@grs+1,f
  5910  072B  0DB0               	rlf	___flmul@grs+2,f
  5911  072C  0DB1               	rlf	___flmul@grs+3,f
  5912  072D  0BA8               	decfsz	??___flmul,f
  5913  072E  2F28               	goto	u2435
  5914  072F                     l2186:
  5915  072F  30FF               	movlw	255
  5916  0730  07B8               	addwf	___flmul@temp,f
  5917  0731  1803               	skipnc
  5918  0732  0AB9               	incf	___flmul@temp+1,f
  5919  0733  30FF               	movlw	255
  5920  0734  07B9               	addwf	___flmul@temp+1,f
  5921  0735                     l2188:
  5922  0735  1FB6               	btfss	___flmul@prod+2,7
  5923  0736  2F38               	goto	u2441
  5924  0737  2F39               	goto	u2440
  5925  0738                     u2441:
  5926  0738  2F18               	goto	l2178
  5927  0739                     u2440:
  5928  0739                     l2190:
  5929  0739  01B2               	clrf	___flmul@aexp
  5930  073A                     l2192:
  5931  073A  1FB1               	btfss	___flmul@grs+3,7
  5932  073B  2F3D               	goto	u2451
  5933  073C  2F3E               	goto	u2450
  5934  073D                     u2451:
  5935  073D  2F5A               	goto	l2200
  5936  073E                     u2450:
  5937  073E                     l2194:
  5938  073E  30FF               	movlw	255
  5939  073F  052E               	andwf	___flmul@grs,w
  5940  0740  00A8               	movwf	??___flmul
  5941  0741  30FF               	movlw	255
  5942  0742  052F               	andwf	___flmul@grs+1,w
  5943  0743  00A9               	movwf	??___flmul+1
  5944  0744  30FF               	movlw	255
  5945  0745  0530               	andwf	___flmul@grs+2,w
  5946  0746  00AA               	movwf	??___flmul+2
  5947  0747  307F               	movlw	127
  5948  0748  0531               	andwf	___flmul@grs+3,w
  5949  0749  00AB               	movwf	??___flmul+3
  5950  074A  082B               	movf	??___flmul+3,w
  5951  074B  042A               	iorwf	??___flmul+2,w
  5952  074C  0429               	iorwf	??___flmul+1,w
  5953  074D  0428               	iorwf	??___flmul,w
  5954  074E  1903               	skipnz
  5955  074F  2F51               	goto	u2461
  5956  0750  2F52               	goto	u2460
  5957  0751                     u2461:
  5958  0751  2F55               	goto	l799
  5959  0752                     u2460:
  5960  0752                     l2196:
  5961  0752  01B2               	clrf	___flmul@aexp
  5962  0753  0AB2               	incf	___flmul@aexp,f
  5963  0754  2F5A               	goto	l2200
  5964  0755                     l799:
  5965  0755  1C34               	btfss	___flmul@prod,0
  5966  0756  2F58               	goto	u2471
  5967  0757  2F59               	goto	u2470
  5968  0758                     u2471:
  5969  0758  2F5A               	goto	l2200
  5970  0759                     u2470:
  5971  0759  2F52               	goto	l2196
  5972  075A                     l2200:
  5973  075A  0832               	movf	___flmul@aexp,w
  5974  075B  1903               	btfsc	3,2
  5975  075C  2F5E               	goto	u2481
  5976  075D  2F5F               	goto	u2480
  5977  075E                     u2481:
  5978  075E  2F90               	goto	l2210
  5979  075F                     u2480:
  5980  075F                     l2202:
  5981  075F  3001               	movlw	1
  5982  0760  07B4               	addwf	___flmul@prod,f
  5983  0761  3000               	movlw	0
  5984  0762  1803               	skipnc
  5985  0763  3001               	movlw	1
  5986  0764  07B5               	addwf	___flmul@prod+1,f
  5987  0765  3000               	movlw	0
  5988  0766  1803               	skipnc
  5989  0767  3001               	movlw	1
  5990  0768  07B6               	addwf	___flmul@prod+2,f
  5991  0769  3000               	movlw	0
  5992  076A  1803               	skipnc
  5993  076B  3001               	movlw	1
  5994  076C  07B7               	addwf	___flmul@prod+3,f
  5995  076D                     l2204:
  5996  076D  1C37               	btfss	___flmul@prod+3,0
  5997  076E  2F70               	goto	u2491
  5998  076F  2F71               	goto	u2490
  5999  0770                     u2491:
  6000  0770  2F90               	goto	l2210
  6001  0771                     u2490:
  6002  0771                     l2206:
  6003  0771  0834               	movf	___flmul@prod,w
  6004  0772  00A8               	movwf	??___flmul
  6005  0773  0835               	movf	___flmul@prod+1,w
  6006  0774  00A9               	movwf	??___flmul+1
  6007  0775  0836               	movf	___flmul@prod+2,w
  6008  0776  00AA               	movwf	??___flmul+2
  6009  0777  0837               	movf	___flmul@prod+3,w
  6010  0778  00AB               	movwf	??___flmul+3
  6011  0779  3001               	movlw	1
  6012  077A  00AC               	movwf	??___flmul+4
  6013  077B                     u2505:
  6014  077B  0D2B               	rlf	??___flmul+3,w
  6015  077C  0CAB               	rrf	??___flmul+3,f
  6016  077D  0CAA               	rrf	??___flmul+2,f
  6017  077E  0CA9               	rrf	??___flmul+1,f
  6018  077F  0CA8               	rrf	??___flmul,f
  6019  0780                     u2500:
  6020  0780  0BAC               	decfsz	??___flmul+4,f
  6021  0781  2F7B               	goto	u2505
  6022  0782  082B               	movf	??___flmul+3,w
  6023  0783  00B7               	movwf	___flmul@prod+3
  6024  0784  082A               	movf	??___flmul+2,w
  6025  0785  00B6               	movwf	___flmul@prod+2
  6026  0786  0829               	movf	??___flmul+1,w
  6027  0787  00B5               	movwf	___flmul@prod+1
  6028  0788  0828               	movf	??___flmul,w
  6029  0789  00B4               	movwf	___flmul@prod
  6030  078A                     l2208:
  6031  078A  3001               	movlw	1
  6032  078B  07B8               	addwf	___flmul@temp,f
  6033  078C  1803               	skipnc
  6034  078D  0AB9               	incf	___flmul@temp+1,f
  6035  078E  3000               	movlw	0
  6036  078F  07B9               	addwf	___flmul@temp+1,f
  6037  0790                     l2210:
  6038  0790  0839               	movf	___flmul@temp+1,w
  6039  0791  3A80               	xorlw	128
  6040  0792  00FF               	movwf	btemp+1
  6041  0793  3080               	movlw	128
  6042  0794  027F               	subwf	btemp+1,w
  6043  0795  1D03               	skipz
  6044  0796  2F99               	goto	u2515
  6045  0797  30FF               	movlw	255
  6046  0798  0238               	subwf	___flmul@temp,w
  6047  0799                     u2515:
  6048  0799  1C03               	skipc
  6049  079A  2F9C               	goto	u2511
  6050  079B  2F9D               	goto	u2510
  6051  079C                     u2511:
  6052  079C  2FA8               	goto	l2214
  6053  079D                     u2510:
  6054  079D                     l2212:
  6055  079D  307F               	movlw	127
  6056  079E  1283               	bcf	3,5	;RP0=0, select bank0
  6057  079F  1303               	bcf	3,6	;RP1=0, select bank0
  6058  07A0  00B7               	movwf	___flmul@prod+3
  6059  07A1  3080               	movlw	128
  6060  07A2  00B6               	movwf	___flmul@prod+2
  6061  07A3  3000               	movlw	0
  6062  07A4  00B5               	movwf	___flmul@prod+1
  6063  07A5  3000               	movlw	0
  6064  07A6  00B4               	movwf	___flmul@prod
  6065  07A7  2FDD               	goto	l805
  6066  07A8                     l2214:
  6067  07A8  1283               	bcf	3,5	;RP0=0, select bank0
  6068  07A9  1303               	bcf	3,6	;RP1=0, select bank0
  6069  07AA  0839               	movf	___flmul@temp+1,w
  6070  07AB  3A80               	xorlw	128
  6071  07AC  00FF               	movwf	btemp+1
  6072  07AD  3080               	movlw	128
  6073  07AE  027F               	subwf	btemp+1,w
  6074  07AF  1D03               	skipz
  6075  07B0  2FB3               	goto	u2525
  6076  07B1  3001               	movlw	1
  6077  07B2  0238               	subwf	___flmul@temp,w
  6078  07B3                     u2525:
  6079  07B3  1803               	skipnc
  6080  07B4  2FB6               	goto	u2521
  6081  07B5  2FB7               	goto	u2520
  6082  07B6                     u2521:
  6083  07B6  2FC3               	goto	l2220
  6084  07B7                     u2520:
  6085  07B7                     l2216:
  6086  07B7  3000               	movlw	0
  6087  07B8  1283               	bcf	3,5	;RP0=0, select bank0
  6088  07B9  1303               	bcf	3,6	;RP1=0, select bank0
  6089  07BA  00B7               	movwf	___flmul@prod+3
  6090  07BB  3000               	movlw	0
  6091  07BC  00B6               	movwf	___flmul@prod+2
  6092  07BD  3000               	movlw	0
  6093  07BE  00B5               	movwf	___flmul@prod+1
  6094  07BF  3000               	movlw	0
  6095  07C0  00B4               	movwf	___flmul@prod
  6096  07C1                     l2218:
  6097  07C1  01AD               	clrf	___flmul@sign
  6098  07C2  2FDD               	goto	l805
  6099  07C3                     l2220:
  6100  07C3  1283               	bcf	3,5	;RP0=0, select bank0
  6101  07C4  1303               	bcf	3,6	;RP1=0, select bank0
  6102  07C5  0838               	movf	___flmul@temp,w
  6103  07C6  00A8               	movwf	??___flmul
  6104  07C7  0828               	movf	??___flmul,w
  6105  07C8  00B3               	movwf	___flmul@bexp
  6106  07C9  30FF               	movlw	255
  6107  07CA  05B4               	andwf	___flmul@prod,f
  6108  07CB  30FF               	movlw	255
  6109  07CC  05B5               	andwf	___flmul@prod+1,f
  6110  07CD  307F               	movlw	127
  6111  07CE  05B6               	andwf	___flmul@prod+2,f
  6112  07CF  3000               	movlw	0
  6113  07D0  05B7               	andwf	___flmul@prod+3,f
  6114  07D1                     l2222:
  6115  07D1  1C33               	btfss	___flmul@bexp,0
  6116  07D2  2FD4               	goto	u2531
  6117  07D3  2FD5               	goto	u2530
  6118  07D4                     u2531:
  6119  07D4  2FD6               	goto	l2226
  6120  07D5                     u2530:
  6121  07D5                     l2224:
  6122  07D5  17B6               	bsf	___flmul@prod+2,7
  6123  07D6                     l2226:
  6124  07D6  0833               	movf	___flmul@bexp,w
  6125  07D7  00A8               	movwf	??___flmul
  6126  07D8  1003               	clrc
  6127  07D9  0C28               	rrf	??___flmul,w
  6128  07DA  00A9               	movwf	??___flmul+1
  6129  07DB  0829               	movf	??___flmul+1,w
  6130  07DC  00B7               	movwf	___flmul@prod+3
  6131  07DD                     l805:
  6132  07DD  082D               	movf	___flmul@sign,w
  6133  07DE  00A8               	movwf	??___flmul
  6134  07DF  0828               	movf	??___flmul,w
  6135  07E0  04B7               	iorwf	___flmul@prod+3,f
  6136  07E1                     l2228:
  6137  07E1  0837               	movf	___flmul@prod+3,w
  6138  07E2  00A3               	movwf	?___flmul+3
  6139  07E3  0836               	movf	___flmul@prod+2,w
  6140  07E4  00A2               	movwf	?___flmul+2
  6141  07E5  0835               	movf	___flmul@prod+1,w
  6142  07E6  00A1               	movwf	?___flmul+1
  6143  07E7  0834               	movf	___flmul@prod,w
  6144  07E8  00A0               	movwf	?___flmul
  6145  07E9                     l793:
  6146  07E9  0008               	return
  6147  07EA                     __end_of___flmul:
  6148                           
  6149                           	psect	text32
  6150  0A45                     __ptext32:	
  6151 ;; *************** function __Umul8_16 *****************
  6152 ;; Defined at:
  6153 ;;		line 4 in file "C:\Program Files\Microchip\xc8\v2.30\pic\sources\c90\common\Umul8_16.c"
  6154 ;; Parameters:    Size  Location     Type
  6155 ;;  multiplier      1    wreg     unsigned char 
  6156 ;;  multiplicand    1    0[COMMON] unsigned char 
  6157 ;; Auto vars:     Size  Location     Type
  6158 ;;  multiplier      1    8[COMMON] unsigned char 
  6159 ;;  word_mpld       2    6[COMMON] unsigned int 
  6160 ;;  product         2    4[COMMON] unsigned int 
  6161 ;; Return value:  Size  Location     Type
  6162 ;;                  2    0[COMMON] unsigned int 
  6163 ;; Registers used:
  6164 ;;		wreg, status,2, status,0
  6165 ;; Tracked objects:
  6166 ;;		On entry : 0/0
  6167 ;;		On exit  : 0/0
  6168 ;;		Unchanged: 0/0
  6169 ;; Data sizes:     COMMON   BANK0   BANK1   BANK3   BANK2
  6170 ;;      Params:         2       0       0       0       0
  6171 ;;      Locals:         5       0       0       0       0
  6172 ;;      Temps:          2       0       0       0       0
  6173 ;;      Totals:         9       0       0       0       0
  6174 ;;Total ram usage:        9 bytes
  6175 ;; Hardware stack levels used:    1
  6176 ;; This function calls:
  6177 ;;		Nothing
  6178 ;; This function is called by:
  6179 ;;		___flmul
  6180 ;; This function uses a non-reentrant model
  6181 ;;
  6182                           
  6183                           
  6184                           ;psect for function __Umul8_16
  6185  0A45                     __Umul8_16:
  6186                           
  6187                           ;incstack = 0
  6188                           ; Regs used in __Umul8_16: [wreg+status,2+status,0]
  6189                           ;__Umul8_16@multiplier stored from wreg
  6190  0A45  00F8               	movwf	__Umul8_16@multiplier
  6191  0A46                     l1888:
  6192  0A46  01F4               	clrf	__Umul8_16@product
  6193  0A47  01F5               	clrf	__Umul8_16@product+1
  6194  0A48                     l1890:
  6195  0A48  0870               	movf	__Umul8_16@multiplicand,w
  6196  0A49  00F2               	movwf	??__Umul8_16
  6197  0A4A  01F3               	clrf	??__Umul8_16+1
  6198  0A4B  0872               	movf	??__Umul8_16,w
  6199  0A4C  00F6               	movwf	__Umul8_16@word_mpld
  6200  0A4D  0873               	movf	??__Umul8_16+1,w
  6201  0A4E  00F7               	movwf	__Umul8_16@word_mpld+1
  6202  0A4F                     l1892:
  6203  0A4F  1C78               	btfss	__Umul8_16@multiplier,0
  6204  0A50  2A52               	goto	u1641
  6205  0A51  2A53               	goto	u1640
  6206  0A52                     u1641:
  6207  0A52  2A59               	goto	l812
  6208  0A53                     u1640:
  6209  0A53                     l1894:
  6210  0A53  0876               	movf	__Umul8_16@word_mpld,w
  6211  0A54  07F4               	addwf	__Umul8_16@product,f
  6212  0A55  1803               	skipnc
  6213  0A56  0AF5               	incf	__Umul8_16@product+1,f
  6214  0A57  0877               	movf	__Umul8_16@word_mpld+1,w
  6215  0A58  07F5               	addwf	__Umul8_16@product+1,f
  6216  0A59                     l812:
  6217  0A59  3001               	movlw	1
  6218  0A5A                     u1655:
  6219  0A5A  1003               	clrc
  6220  0A5B  0DF6               	rlf	__Umul8_16@word_mpld,f
  6221  0A5C  0DF7               	rlf	__Umul8_16@word_mpld+1,f
  6222  0A5D  3EFF               	addlw	-1
  6223  0A5E  1D03               	skipz
  6224  0A5F  2A5A               	goto	u1655
  6225  0A60  1003               	clrc
  6226  0A61  0CF8               	rrf	__Umul8_16@multiplier,f
  6227  0A62                     l1896:
  6228  0A62  0878               	movf	__Umul8_16@multiplier,w
  6229  0A63  1D03               	btfss	3,2
  6230  0A64  2A66               	goto	u1661
  6231  0A65  2A67               	goto	u1660
  6232  0A66                     u1661:
  6233  0A66  2A4F               	goto	l1892
  6234  0A67                     u1660:
  6235  0A67                     l1898:
  6236  0A67  0875               	movf	__Umul8_16@product+1,w
  6237  0A68  00F1               	movwf	?__Umul8_16+1
  6238  0A69  0874               	movf	__Umul8_16@product,w
  6239  0A6A  00F0               	movwf	?__Umul8_16
  6240  0A6B                     l814:
  6241  0A6B  0008               	return
  6242  0A6C                     __end_of__Umul8_16:
  6243                           
  6244                           	psect	text33
  6245  02AC                     __ptext33:	
  6246 ;; *************** function ___fldiv *****************
  6247 ;; Defined at:
  6248 ;;		line 8 in file "C:\Program Files\Microchip\xc8\v2.30\pic\sources\c90\common\sprcdiv.c"
  6249 ;; Parameters:    Size  Location     Type
  6250 ;;  a               4   26[BANK0 ] unsigned int 
  6251 ;;  b               4   30[BANK0 ] unsigned int 
  6252 ;; Auto vars:     Size  Location     Type
  6253 ;;  grs             4   46[BANK0 ] unsigned long 
  6254 ;;  rem             4   39[BANK0 ] unsigned long 
  6255 ;;  new_exp         2   44[BANK0 ] int 
  6256 ;;  aexp            1   51[BANK0 ] unsigned char 
  6257 ;;  bexp            1   50[BANK0 ] unsigned char 
  6258 ;;  sign            1   43[BANK0 ] unsigned char 
  6259 ;; Return value:  Size  Location     Type
  6260 ;;                  4   26[BANK0 ] unsigned char 
  6261 ;; Registers used:
  6262 ;;		wreg, status,2, status,0, btemp+1
  6263 ;; Tracked objects:
  6264 ;;		On entry : 0/0
  6265 ;;		On exit  : 0/0
  6266 ;;		Unchanged: 0/0
  6267 ;; Data sizes:     COMMON   BANK0   BANK1   BANK3   BANK2
  6268 ;;      Params:         0       8       0       0       0
  6269 ;;      Locals:         0      13       0       0       0
  6270 ;;      Temps:          0       5       0       0       0
  6271 ;;      Totals:         0      26       0       0       0
  6272 ;;Total ram usage:       26 bytes
  6273 ;; Hardware stack levels used:    1
  6274 ;; This function calls:
  6275 ;;		Nothing
  6276 ;; This function is called by:
  6277 ;;		_distance
  6278 ;; This function uses a non-reentrant model
  6279 ;;
  6280                           
  6281                           
  6282                           ;psect for function ___fldiv
  6283  02AC                     ___fldiv:
  6284  02AC                     l1950:	
  6285                           ;incstack = 0
  6286                           ; Regs used in ___fldiv: [wreg+status,2+status,0+btemp+1]
  6287                           
  6288  02AC  1283               	bcf	3,5	;RP0=0, select bank0
  6289  02AD  1303               	bcf	3,6	;RP1=0, select bank0
  6290  02AE  0841               	movf	___fldiv@b+3,w
  6291  02AF  3980               	andlw	128
  6292  02B0  00C2               	movwf	??___fldiv
  6293  02B1  0842               	movf	??___fldiv,w
  6294  02B2  00CB               	movwf	___fldiv@sign
  6295  02B3                     l1952:
  6296  02B3  0841               	movf	___fldiv@b+3,w
  6297  02B4  00C2               	movwf	??___fldiv
  6298  02B5  0742               	addwf	??___fldiv,w
  6299  02B6  00C3               	movwf	??___fldiv+1
  6300  02B7  0843               	movf	??___fldiv+1,w
  6301  02B8  00D2               	movwf	___fldiv@bexp
  6302  02B9                     l1954:
  6303  02B9  1FC0               	btfss	___fldiv@b+2,7
  6304  02BA  2ABC               	goto	u1881
  6305  02BB  2ABD               	goto	u1880
  6306  02BC                     u1881:
  6307  02BC  2ABE               	goto	l1958
  6308  02BD                     u1880:
  6309  02BD                     l1956:
  6310  02BD  1452               	bsf	___fldiv@bexp,0
  6311  02BE                     l1958:
  6312  02BE  0852               	movf	___fldiv@bexp,w
  6313  02BF  1903               	btfsc	3,2
  6314  02C0  2AC2               	goto	u1891
  6315  02C1  2AC3               	goto	u1890
  6316  02C2                     u1891:
  6317  02C2  2AD3               	goto	l1968
  6318  02C3                     u1890:
  6319  02C3                     l1960:
  6320  02C3  0A52               	incf	___fldiv@bexp,w
  6321  02C4  1D03               	btfss	3,2
  6322  02C5  2AC7               	goto	u1901
  6323  02C6  2AC8               	goto	u1900
  6324  02C7                     u1901:
  6325  02C7  2AD0               	goto	l1964
  6326  02C8                     u1900:
  6327  02C8                     l1962:
  6328  02C8  3000               	movlw	0
  6329  02C9  00C1               	movwf	___fldiv@b+3
  6330  02CA  3000               	movlw	0
  6331  02CB  00C0               	movwf	___fldiv@b+2
  6332  02CC  3000               	movlw	0
  6333  02CD  00BF               	movwf	___fldiv@b+1
  6334  02CE  3000               	movlw	0
  6335  02CF  00BE               	movwf	___fldiv@b
  6336  02D0                     l1964:
  6337  02D0  17C0               	bsf	___fldiv@b+2,7
  6338  02D1                     l1966:
  6339  02D1  01C1               	clrf	___fldiv@b+3
  6340  02D2  2ADB               	goto	l1970
  6341  02D3                     l1968:
  6342  02D3  3000               	movlw	0
  6343  02D4  00C1               	movwf	___fldiv@b+3
  6344  02D5  3000               	movlw	0
  6345  02D6  00C0               	movwf	___fldiv@b+2
  6346  02D7  3000               	movlw	0
  6347  02D8  00BF               	movwf	___fldiv@b+1
  6348  02D9  3000               	movlw	0
  6349  02DA  00BE               	movwf	___fldiv@b
  6350  02DB                     l1970:
  6351  02DB  083D               	movf	___fldiv@a+3,w
  6352  02DC  3980               	andlw	128
  6353  02DD  00C2               	movwf	??___fldiv
  6354  02DE  0842               	movf	??___fldiv,w
  6355  02DF  06CB               	xorwf	___fldiv@sign,f
  6356  02E0                     l1972:
  6357  02E0  083D               	movf	___fldiv@a+3,w
  6358  02E1  00C2               	movwf	??___fldiv
  6359  02E2  0742               	addwf	??___fldiv,w
  6360  02E3  00C3               	movwf	??___fldiv+1
  6361  02E4  0843               	movf	??___fldiv+1,w
  6362  02E5  00D3               	movwf	___fldiv@aexp
  6363  02E6                     l1974:
  6364  02E6  1FBC               	btfss	___fldiv@a+2,7
  6365  02E7  2AE9               	goto	u1911
  6366  02E8  2AEA               	goto	u1910
  6367  02E9                     u1911:
  6368  02E9  2AEB               	goto	l1978
  6369  02EA                     u1910:
  6370  02EA                     l1976:
  6371  02EA  1453               	bsf	___fldiv@aexp,0
  6372  02EB                     l1978:
  6373  02EB  0853               	movf	___fldiv@aexp,w
  6374  02EC  1903               	btfsc	3,2
  6375  02ED  2AEF               	goto	u1921
  6376  02EE  2AF0               	goto	u1920
  6377  02EF                     u1921:
  6378  02EF  2B00               	goto	l1988
  6379  02F0                     u1920:
  6380  02F0                     l1980:
  6381  02F0  0A53               	incf	___fldiv@aexp,w
  6382  02F1  1D03               	btfss	3,2
  6383  02F2  2AF4               	goto	u1931
  6384  02F3  2AF5               	goto	u1930
  6385  02F4                     u1931:
  6386  02F4  2AFD               	goto	l1984
  6387  02F5                     u1930:
  6388  02F5                     l1982:
  6389  02F5  3000               	movlw	0
  6390  02F6  00BD               	movwf	___fldiv@a+3
  6391  02F7  3000               	movlw	0
  6392  02F8  00BC               	movwf	___fldiv@a+2
  6393  02F9  3000               	movlw	0
  6394  02FA  00BB               	movwf	___fldiv@a+1
  6395  02FB  3000               	movlw	0
  6396  02FC  00BA               	movwf	___fldiv@a
  6397  02FD                     l1984:
  6398  02FD  17BC               	bsf	___fldiv@a+2,7
  6399  02FE                     l1986:
  6400  02FE  01BD               	clrf	___fldiv@a+3
  6401  02FF  2B08               	goto	l753
  6402  0300                     l1988:
  6403  0300  3000               	movlw	0
  6404  0301  00BD               	movwf	___fldiv@a+3
  6405  0302  3000               	movlw	0
  6406  0303  00BC               	movwf	___fldiv@a+2
  6407  0304  3000               	movlw	0
  6408  0305  00BB               	movwf	___fldiv@a+1
  6409  0306  3000               	movlw	0
  6410  0307  00BA               	movwf	___fldiv@a
  6411  0308                     l753:
  6412  0308  083D               	movf	___fldiv@a+3,w
  6413  0309  043C               	iorwf	___fldiv@a+2,w
  6414  030A  043B               	iorwf	___fldiv@a+1,w
  6415  030B  043A               	iorwf	___fldiv@a,w
  6416  030C  1D03               	skipz
  6417  030D  2B0F               	goto	u1941
  6418  030E  2B10               	goto	u1940
  6419  030F                     u1941:
  6420  030F  2B29               	goto	l1998
  6421  0310                     u1940:
  6422  0310                     l1990:
  6423  0310  3000               	movlw	0
  6424  0311  00C1               	movwf	___fldiv@b+3
  6425  0312  3000               	movlw	0
  6426  0313  00C0               	movwf	___fldiv@b+2
  6427  0314  3000               	movlw	0
  6428  0315  00BF               	movwf	___fldiv@b+1
  6429  0316  3000               	movlw	0
  6430  0317  00BE               	movwf	___fldiv@b
  6431  0318  3080               	movlw	128
  6432  0319  04C0               	iorwf	___fldiv@b+2,f
  6433  031A  307F               	movlw	127
  6434  031B  04C1               	iorwf	___fldiv@b+3,f
  6435  031C                     l1992:
  6436  031C  084B               	movf	___fldiv@sign,w
  6437  031D  00C2               	movwf	??___fldiv
  6438  031E  0842               	movf	??___fldiv,w
  6439  031F  04C1               	iorwf	___fldiv@b+3,f
  6440  0320                     l1994:
  6441  0320  0841               	movf	___fldiv@b+3,w
  6442  0321  00BD               	movwf	?___fldiv+3
  6443  0322  0840               	movf	___fldiv@b+2,w
  6444  0323  00BC               	movwf	?___fldiv+2
  6445  0324  083F               	movf	___fldiv@b+1,w
  6446  0325  00BB               	movwf	?___fldiv+1
  6447  0326  083E               	movf	___fldiv@b,w
  6448  0327  00BA               	movwf	?___fldiv
  6449  0328  2C88               	goto	l755
  6450  0329                     l1998:
  6451  0329  0852               	movf	___fldiv@bexp,w
  6452  032A  1D03               	btfss	3,2
  6453  032B  2B2D               	goto	u1951
  6454  032C  2B2E               	goto	u1950
  6455  032D                     u1951:
  6456  032D  2B37               	goto	l2004
  6457  032E                     u1950:
  6458  032E                     l2000:
  6459  032E  3000               	movlw	0
  6460  032F  00BD               	movwf	?___fldiv+3
  6461  0330  3000               	movlw	0
  6462  0331  00BC               	movwf	?___fldiv+2
  6463  0332  3000               	movlw	0
  6464  0333  00BB               	movwf	?___fldiv+1
  6465  0334  3000               	movlw	0
  6466  0335  00BA               	movwf	?___fldiv
  6467  0336  2C88               	goto	l755
  6468  0337                     l2004:
  6469  0337  0852               	movf	___fldiv@bexp,w
  6470  0338  00C2               	movwf	??___fldiv
  6471  0339  01C3               	clrf	??___fldiv+1
  6472  033A  0843               	movf	??___fldiv+1,w
  6473  033B  00C5               	movwf	??___fldiv+3
  6474  033C  0853               	movf	___fldiv@aexp,w
  6475  033D  0242               	subwf	??___fldiv,w
  6476  033E  00C4               	movwf	??___fldiv+2
  6477  033F  1C03               	skipc
  6478  0340  03C5               	decf	??___fldiv+3,f
  6479  0341  0844               	movf	??___fldiv+2,w
  6480  0342  3E7F               	addlw	127
  6481  0343  00CC               	movwf	___fldiv@new_exp
  6482  0344  0845               	movf	??___fldiv+3,w
  6483  0345  1803               	skipnc
  6484  0346  3E01               	addlw	1
  6485  0347  3E00               	addlw	0
  6486  0348  00CD               	movwf	___fldiv@new_exp+1
  6487  0349                     l2006:
  6488  0349  0841               	movf	___fldiv@b+3,w
  6489  034A  00CA               	movwf	___fldiv@rem+3
  6490  034B  0840               	movf	___fldiv@b+2,w
  6491  034C  00C9               	movwf	___fldiv@rem+2
  6492  034D  083F               	movf	___fldiv@b+1,w
  6493  034E  00C8               	movwf	___fldiv@rem+1
  6494  034F  083E               	movf	___fldiv@b,w
  6495  0350  00C7               	movwf	___fldiv@rem
  6496  0351                     l2008:
  6497  0351  3000               	movlw	0
  6498  0352  00C1               	movwf	___fldiv@b+3
  6499  0353  3000               	movlw	0
  6500  0354  00C0               	movwf	___fldiv@b+2
  6501  0355  3000               	movlw	0
  6502  0356  00BF               	movwf	___fldiv@b+1
  6503  0357  3000               	movlw	0
  6504  0358  00BE               	movwf	___fldiv@b
  6505  0359                     l2010:
  6506  0359  3000               	movlw	0
  6507  035A  00D1               	movwf	___fldiv@grs+3
  6508  035B  3000               	movlw	0
  6509  035C  00D0               	movwf	___fldiv@grs+2
  6510  035D  3000               	movlw	0
  6511  035E  00CF               	movwf	___fldiv@grs+1
  6512  035F  3000               	movlw	0
  6513  0360  00CE               	movwf	___fldiv@grs
  6514  0361                     l2012:
  6515  0361  01D3               	clrf	___fldiv@aexp
  6516  0362  2BAD               	goto	l2032
  6517  0363                     l2014:
  6518  0363  0853               	movf	___fldiv@aexp,w
  6519  0364  1903               	btfsc	3,2
  6520  0365  2B67               	goto	u1961
  6521  0366  2B68               	goto	u1960
  6522  0367                     u1961:
  6523  0367  2B88               	goto	l2024
  6524  0368                     u1960:
  6525  0368                     l2016:
  6526  0368  3001               	movlw	1
  6527  0369  00C2               	movwf	??___fldiv
  6528  036A                     u1975:
  6529  036A  1003               	clrc
  6530  036B  0DC7               	rlf	___fldiv@rem,f
  6531  036C  0DC8               	rlf	___fldiv@rem+1,f
  6532  036D  0DC9               	rlf	___fldiv@rem+2,f
  6533  036E  0DCA               	rlf	___fldiv@rem+3,f
  6534  036F  0BC2               	decfsz	??___fldiv,f
  6535  0370  2B6A               	goto	u1975
  6536  0371  3001               	movlw	1
  6537  0372  00C2               	movwf	??___fldiv
  6538  0373                     u1985:
  6539  0373  1003               	clrc
  6540  0374  0DBE               	rlf	___fldiv@b,f
  6541  0375  0DBF               	rlf	___fldiv@b+1,f
  6542  0376  0DC0               	rlf	___fldiv@b+2,f
  6543  0377  0DC1               	rlf	___fldiv@b+3,f
  6544  0378  0BC2               	decfsz	??___fldiv,f
  6545  0379  2B73               	goto	u1985
  6546  037A                     l2018:
  6547  037A  1FD1               	btfss	___fldiv@grs+3,7
  6548  037B  2B7D               	goto	u1991
  6549  037C  2B7E               	goto	u1990
  6550  037D                     u1991:
  6551  037D  2B7F               	goto	l2022
  6552  037E                     u1990:
  6553  037E                     l2020:
  6554  037E  143E               	bsf	___fldiv@b,0
  6555  037F                     l2022:
  6556  037F  3001               	movlw	1
  6557  0380  00C2               	movwf	??___fldiv
  6558  0381                     u2005:
  6559  0381  1003               	clrc
  6560  0382  0DCE               	rlf	___fldiv@grs,f
  6561  0383  0DCF               	rlf	___fldiv@grs+1,f
  6562  0384  0DD0               	rlf	___fldiv@grs+2,f
  6563  0385  0DD1               	rlf	___fldiv@grs+3,f
  6564  0386  0BC2               	decfsz	??___fldiv,f
  6565  0387  2B81               	goto	u2005
  6566  0388                     l2024:
  6567  0388  083D               	movf	___fldiv@a+3,w
  6568  0389  024A               	subwf	___fldiv@rem+3,w
  6569  038A  1D03               	skipz
  6570  038B  2B96               	goto	u2015
  6571  038C  083C               	movf	___fldiv@a+2,w
  6572  038D  0249               	subwf	___fldiv@rem+2,w
  6573  038E  1D03               	skipz
  6574  038F  2B96               	goto	u2015
  6575  0390  083B               	movf	___fldiv@a+1,w
  6576  0391  0248               	subwf	___fldiv@rem+1,w
  6577  0392  1D03               	skipz
  6578  0393  2B96               	goto	u2015
  6579  0394  083A               	movf	___fldiv@a,w
  6580  0395  0247               	subwf	___fldiv@rem,w
  6581  0396                     u2015:
  6582  0396  1C03               	skipc
  6583  0397  2B99               	goto	u2011
  6584  0398  2B9A               	goto	u2010
  6585  0399                     u2011:
  6586  0399  2BA9               	goto	l2030
  6587  039A                     u2010:
  6588  039A                     l2026:
  6589  039A  1751               	bsf	___fldiv@grs+3,6
  6590  039B                     l2028:
  6591  039B  083A               	movf	___fldiv@a,w
  6592  039C  02C7               	subwf	___fldiv@rem,f
  6593  039D  083B               	movf	___fldiv@a+1,w
  6594  039E  1C03               	skipc
  6595  039F  0F3B               	incfsz	___fldiv@a+1,w
  6596  03A0  02C8               	subwf	___fldiv@rem+1,f
  6597  03A1  083C               	movf	___fldiv@a+2,w
  6598  03A2  1C03               	skipc
  6599  03A3  0F3C               	incfsz	___fldiv@a+2,w
  6600  03A4  02C9               	subwf	___fldiv@rem+2,f
  6601  03A5  083D               	movf	___fldiv@a+3,w
  6602  03A6  1C03               	skipc
  6603  03A7  0F3D               	incfsz	___fldiv@a+3,w
  6604  03A8  02CA               	subwf	___fldiv@rem+3,f
  6605  03A9                     l2030:
  6606  03A9  3001               	movlw	1
  6607  03AA  00C2               	movwf	??___fldiv
  6608  03AB  0842               	movf	??___fldiv,w
  6609  03AC  07D3               	addwf	___fldiv@aexp,f
  6610  03AD                     l2032:
  6611  03AD  301A               	movlw	26
  6612  03AE  0253               	subwf	___fldiv@aexp,w
  6613  03AF  1C03               	skipc
  6614  03B0  2BB2               	goto	u2021
  6615  03B1  2BB3               	goto	u2020
  6616  03B2                     u2021:
  6617  03B2  2B63               	goto	l2014
  6618  03B3                     u2020:
  6619  03B3                     l2034:
  6620  03B3  084A               	movf	___fldiv@rem+3,w
  6621  03B4  0449               	iorwf	___fldiv@rem+2,w
  6622  03B5  0448               	iorwf	___fldiv@rem+1,w
  6623  03B6  0447               	iorwf	___fldiv@rem,w
  6624  03B7  1903               	skipnz
  6625  03B8  2BBA               	goto	u2031
  6626  03B9  2BBB               	goto	u2030
  6627  03BA                     u2031:
  6628  03BA  2BDA               	goto	l2048
  6629  03BB                     u2030:
  6630  03BB                     l2036:
  6631  03BB  144E               	bsf	___fldiv@grs,0
  6632  03BC  2BDA               	goto	l2048
  6633  03BD                     l2038:
  6634  03BD  3001               	movlw	1
  6635  03BE  00C2               	movwf	??___fldiv
  6636  03BF                     u2045:
  6637  03BF  1003               	clrc
  6638  03C0  0DBE               	rlf	___fldiv@b,f
  6639  03C1  0DBF               	rlf	___fldiv@b+1,f
  6640  03C2  0DC0               	rlf	___fldiv@b+2,f
  6641  03C3  0DC1               	rlf	___fldiv@b+3,f
  6642  03C4  0BC2               	decfsz	??___fldiv,f
  6643  03C5  2BBF               	goto	u2045
  6644  03C6                     l2040:
  6645  03C6  1FD1               	btfss	___fldiv@grs+3,7
  6646  03C7  2BC9               	goto	u2051
  6647  03C8  2BCA               	goto	u2050
  6648  03C9                     u2051:
  6649  03C9  2BCB               	goto	l2044
  6650  03CA                     u2050:
  6651  03CA                     l2042:
  6652  03CA  143E               	bsf	___fldiv@b,0
  6653  03CB                     l2044:
  6654  03CB  3001               	movlw	1
  6655  03CC  00C2               	movwf	??___fldiv
  6656  03CD                     u2065:
  6657  03CD  1003               	clrc
  6658  03CE  0DCE               	rlf	___fldiv@grs,f
  6659  03CF  0DCF               	rlf	___fldiv@grs+1,f
  6660  03D0  0DD0               	rlf	___fldiv@grs+2,f
  6661  03D1  0DD1               	rlf	___fldiv@grs+3,f
  6662  03D2  0BC2               	decfsz	??___fldiv,f
  6663  03D3  2BCD               	goto	u2065
  6664  03D4                     l2046:
  6665  03D4  30FF               	movlw	255
  6666  03D5  07CC               	addwf	___fldiv@new_exp,f
  6667  03D6  1803               	skipnc
  6668  03D7  0ACD               	incf	___fldiv@new_exp+1,f
  6669  03D8  30FF               	movlw	255
  6670  03D9  07CD               	addwf	___fldiv@new_exp+1,f
  6671  03DA                     l2048:
  6672  03DA  1FC0               	btfss	___fldiv@b+2,7
  6673  03DB  2BDD               	goto	u2071
  6674  03DC  2BDE               	goto	u2070
  6675  03DD                     u2071:
  6676  03DD  2BBD               	goto	l2038
  6677  03DE                     u2070:
  6678  03DE                     l2050:
  6679  03DE  01D3               	clrf	___fldiv@aexp
  6680  03DF                     l2052:
  6681  03DF  1FD1               	btfss	___fldiv@grs+3,7
  6682  03E0  2BE2               	goto	u2081
  6683  03E1  2BE3               	goto	u2080
  6684  03E2                     u2081:
  6685  03E2  2BFF               	goto	l2060
  6686  03E3                     u2080:
  6687  03E3                     l2054:
  6688  03E3  30FF               	movlw	255
  6689  03E4  054E               	andwf	___fldiv@grs,w
  6690  03E5  00C2               	movwf	??___fldiv
  6691  03E6  30FF               	movlw	255
  6692  03E7  054F               	andwf	___fldiv@grs+1,w
  6693  03E8  00C3               	movwf	??___fldiv+1
  6694  03E9  30FF               	movlw	255
  6695  03EA  0550               	andwf	___fldiv@grs+2,w
  6696  03EB  00C4               	movwf	??___fldiv+2
  6697  03EC  307F               	movlw	127
  6698  03ED  0551               	andwf	___fldiv@grs+3,w
  6699  03EE  00C5               	movwf	??___fldiv+3
  6700  03EF  0845               	movf	??___fldiv+3,w
  6701  03F0  0444               	iorwf	??___fldiv+2,w
  6702  03F1  0443               	iorwf	??___fldiv+1,w
  6703  03F2  0442               	iorwf	??___fldiv,w
  6704  03F3  1903               	skipnz
  6705  03F4  2BF6               	goto	u2091
  6706  03F5  2BF7               	goto	u2090
  6707  03F6                     u2091:
  6708  03F6  2BFA               	goto	l769
  6709  03F7                     u2090:
  6710  03F7                     l2056:
  6711  03F7  01D3               	clrf	___fldiv@aexp
  6712  03F8  0AD3               	incf	___fldiv@aexp,f
  6713  03F9  2BFF               	goto	l2060
  6714  03FA                     l769:
  6715  03FA  1C3E               	btfss	___fldiv@b,0
  6716  03FB  2BFD               	goto	u2101
  6717  03FC  2BFE               	goto	u2100
  6718  03FD                     u2101:
  6719  03FD  2BFF               	goto	l2060
  6720  03FE                     u2100:
  6721  03FE  2BF7               	goto	l2056
  6722  03FF                     l2060:
  6723  03FF  0853               	movf	___fldiv@aexp,w
  6724  0400  1903               	btfsc	3,2
  6725  0401  2C03               	goto	u2111
  6726  0402  2C04               	goto	u2110
  6727  0403                     u2111:
  6728  0403  2C35               	goto	l2070
  6729  0404                     u2110:
  6730  0404                     l2062:
  6731  0404  3001               	movlw	1
  6732  0405  07BE               	addwf	___fldiv@b,f
  6733  0406  3000               	movlw	0
  6734  0407  1803               	skipnc
  6735  0408  3001               	movlw	1
  6736  0409  07BF               	addwf	___fldiv@b+1,f
  6737  040A  3000               	movlw	0
  6738  040B  1803               	skipnc
  6739  040C  3001               	movlw	1
  6740  040D  07C0               	addwf	___fldiv@b+2,f
  6741  040E  3000               	movlw	0
  6742  040F  1803               	skipnc
  6743  0410  3001               	movlw	1
  6744  0411  07C1               	addwf	___fldiv@b+3,f
  6745  0412                     l2064:
  6746  0412  1C41               	btfss	___fldiv@b+3,0
  6747  0413  2C15               	goto	u2121
  6748  0414  2C16               	goto	u2120
  6749  0415                     u2121:
  6750  0415  2C35               	goto	l2070
  6751  0416                     u2120:
  6752  0416                     l2066:
  6753  0416  083E               	movf	___fldiv@b,w
  6754  0417  00C2               	movwf	??___fldiv
  6755  0418  083F               	movf	___fldiv@b+1,w
  6756  0419  00C3               	movwf	??___fldiv+1
  6757  041A  0840               	movf	___fldiv@b+2,w
  6758  041B  00C4               	movwf	??___fldiv+2
  6759  041C  0841               	movf	___fldiv@b+3,w
  6760  041D  00C5               	movwf	??___fldiv+3
  6761  041E  3001               	movlw	1
  6762  041F  00C6               	movwf	??___fldiv+4
  6763  0420                     u2135:
  6764  0420  0D45               	rlf	??___fldiv+3,w
  6765  0421  0CC5               	rrf	??___fldiv+3,f
  6766  0422  0CC4               	rrf	??___fldiv+2,f
  6767  0423  0CC3               	rrf	??___fldiv+1,f
  6768  0424  0CC2               	rrf	??___fldiv,f
  6769  0425                     u2130:
  6770  0425  0BC6               	decfsz	??___fldiv+4,f
  6771  0426  2C20               	goto	u2135
  6772  0427  0845               	movf	??___fldiv+3,w
  6773  0428  00C1               	movwf	___fldiv@b+3
  6774  0429  0844               	movf	??___fldiv+2,w
  6775  042A  00C0               	movwf	___fldiv@b+2
  6776  042B  0843               	movf	??___fldiv+1,w
  6777  042C  00BF               	movwf	___fldiv@b+1
  6778  042D  0842               	movf	??___fldiv,w
  6779  042E  00BE               	movwf	___fldiv@b
  6780  042F                     l2068:
  6781  042F  3001               	movlw	1
  6782  0430  07CC               	addwf	___fldiv@new_exp,f
  6783  0431  1803               	skipnc
  6784  0432  0ACD               	incf	___fldiv@new_exp+1,f
  6785  0433  3000               	movlw	0
  6786  0434  07CD               	addwf	___fldiv@new_exp+1,f
  6787  0435                     l2070:
  6788  0435  084D               	movf	___fldiv@new_exp+1,w
  6789  0436  3A80               	xorlw	128
  6790  0437  00FF               	movwf	btemp+1
  6791  0438  3080               	movlw	128
  6792  0439  027F               	subwf	btemp+1,w
  6793  043A  1D03               	skipz
  6794  043B  2C3E               	goto	u2145
  6795  043C  30FF               	movlw	255
  6796  043D  024C               	subwf	___fldiv@new_exp,w
  6797  043E                     u2145:
  6798  043E  1C03               	skipc
  6799  043F  2C41               	goto	u2141
  6800  0440  2C42               	goto	u2140
  6801  0441                     u2141:
  6802  0441  2C50               	goto	l2074
  6803  0442                     u2140:
  6804  0442                     l2072:
  6805  0442  30FF               	movlw	255
  6806  0443  1283               	bcf	3,5	;RP0=0, select bank0
  6807  0444  1303               	bcf	3,6	;RP1=0, select bank0
  6808  0445  00CC               	movwf	___fldiv@new_exp
  6809  0446  3000               	movlw	0
  6810  0447  00CD               	movwf	___fldiv@new_exp+1
  6811  0448  3000               	movlw	0
  6812  0449  00C1               	movwf	___fldiv@b+3
  6813  044A  3000               	movlw	0
  6814  044B  00C0               	movwf	___fldiv@b+2
  6815  044C  3000               	movlw	0
  6816  044D  00BF               	movwf	___fldiv@b+1
  6817  044E  3000               	movlw	0
  6818  044F  00BE               	movwf	___fldiv@b
  6819  0450                     l2074:
  6820  0450  1283               	bcf	3,5	;RP0=0, select bank0
  6821  0451  1303               	bcf	3,6	;RP1=0, select bank0
  6822  0452  084D               	movf	___fldiv@new_exp+1,w
  6823  0453  3A80               	xorlw	128
  6824  0454  00FF               	movwf	btemp+1
  6825  0455  3080               	movlw	128
  6826  0456  027F               	subwf	btemp+1,w
  6827  0457  1D03               	skipz
  6828  0458  2C5B               	goto	u2155
  6829  0459  3001               	movlw	1
  6830  045A  024C               	subwf	___fldiv@new_exp,w
  6831  045B                     u2155:
  6832  045B  1803               	skipnc
  6833  045C  2C5E               	goto	u2151
  6834  045D  2C5F               	goto	u2150
  6835  045E                     u2151:
  6836  045E  2C6C               	goto	l775
  6837  045F                     u2150:
  6838  045F                     l2076:
  6839  045F  1283               	bcf	3,5	;RP0=0, select bank0
  6840  0460  1303               	bcf	3,6	;RP1=0, select bank0
  6841  0461  01CC               	clrf	___fldiv@new_exp
  6842  0462  01CD               	clrf	___fldiv@new_exp+1
  6843  0463                     l2078:
  6844  0463  3000               	movlw	0
  6845  0464  00C1               	movwf	___fldiv@b+3
  6846  0465  3000               	movlw	0
  6847  0466  00C0               	movwf	___fldiv@b+2
  6848  0467  3000               	movlw	0
  6849  0468  00BF               	movwf	___fldiv@b+1
  6850  0469  3000               	movlw	0
  6851  046A  00BE               	movwf	___fldiv@b
  6852  046B                     l2080:
  6853  046B  01CB               	clrf	___fldiv@sign
  6854  046C                     l775:
  6855  046C  1283               	bcf	3,5	;RP0=0, select bank0
  6856  046D  1303               	bcf	3,6	;RP1=0, select bank0
  6857  046E  084C               	movf	___fldiv@new_exp,w
  6858  046F  00C2               	movwf	??___fldiv
  6859  0470  0842               	movf	??___fldiv,w
  6860  0471  00D2               	movwf	___fldiv@bexp
  6861  0472                     l2082:
  6862  0472  1C52               	btfss	___fldiv@bexp,0
  6863  0473  2C75               	goto	u2161
  6864  0474  2C76               	goto	u2160
  6865  0475                     u2161:
  6866  0475  2C78               	goto	l2086
  6867  0476                     u2160:
  6868  0476                     l2084:
  6869  0476  17C0               	bsf	___fldiv@b+2,7
  6870  0477  2C7C               	goto	l777
  6871  0478                     l2086:
  6872  0478  307F               	movlw	127
  6873  0479  00C2               	movwf	??___fldiv
  6874  047A  0842               	movf	??___fldiv,w
  6875  047B  05C0               	andwf	___fldiv@b+2,f
  6876  047C                     l777:
  6877  047C  0852               	movf	___fldiv@bexp,w
  6878  047D  00C2               	movwf	??___fldiv
  6879  047E  1003               	clrc
  6880  047F  0C42               	rrf	??___fldiv,w
  6881  0480  00C3               	movwf	??___fldiv+1
  6882  0481  0843               	movf	??___fldiv+1,w
  6883  0482  00C1               	movwf	___fldiv@b+3
  6884  0483  084B               	movf	___fldiv@sign,w
  6885  0484  00C2               	movwf	??___fldiv
  6886  0485  0842               	movf	??___fldiv,w
  6887  0486  04C1               	iorwf	___fldiv@b+3,f
  6888  0487  2B20               	goto	l1994
  6889  0488                     l755:
  6890  0488  0008               	return
  6891  0489                     __end_of___fldiv:
  6892                           
  6893                           	psect	text34
  6894  0DD1                     __ptext34:	
  6895 ;; *************** function _Read_DTH11 *****************
  6896 ;; Defined at:
  6897 ;;		line 39 in file "./_DHT11.h"
  6898 ;; Parameters:    Size  Location     Type
  6899 ;;		None
  6900 ;; Auto vars:     Size  Location     Type
  6901 ;;  ii              1    6[COMMON] unsigned char 
  6902 ;;  i               1    7[COMMON] unsigned char 
  6903 ;; Return value:  Size  Location     Type
  6904 ;;                  1    wreg      unsigned char 
  6905 ;; Registers used:
  6906 ;;		wreg, fsr0l, fsr0h, status,2, status,0
  6907 ;; Tracked objects:
  6908 ;;		On entry : 0/0
  6909 ;;		On exit  : 0/0
  6910 ;;		Unchanged: 0/0
  6911 ;; Data sizes:     COMMON   BANK0   BANK1   BANK3   BANK2
  6912 ;;      Params:         0       0       0       0       0
  6913 ;;      Locals:         2       0       0       0       0
  6914 ;;      Temps:          6       0       0       0       0
  6915 ;;      Totals:         8       0       0       0       0
  6916 ;;Total ram usage:        8 bytes
  6917 ;; Hardware stack levels used:    1
  6918 ;; This function calls:
  6919 ;;		Nothing
  6920 ;; This function is called by:
  6921 ;;		_main
  6922 ;; This function uses a non-reentrant model
  6923 ;;
  6924                           
  6925                           
  6926                           ;psect for function _Read_DTH11
  6927  0DD1                     _Read_DTH11:
  6928  0DD1                     l2558:	
  6929                           ;incstack = 0
  6930                           ; Regs used in _Read_DTH11: [wreg-fsr0h+status,2+status,0]
  6931                           
  6932                           
  6933                           ;./_DHT11.h: 42:     for(uint8_t i = 0; i<5; i++){
  6934  0DD1  01F7               	clrf	Read_DTH11@i
  6935  0DD2                     l2564:
  6936                           
  6937                           ;./_DHT11.h: 43:        for(uint8_t ii = 0; ii<8; ii++) {
  6938  0DD2  01F6               	clrf	Read_DTH11@ii
  6939  0DD3                     l142:
  6940  0DD3  1283               	bcf	3,5	;RP0=0, select bank0
  6941  0DD4  1303               	bcf	3,6	;RP1=0, select bank0
  6942  0DD5  1C06               	btfss	6,0	;volatile
  6943  0DD6  2DD8               	goto	u3071
  6944  0DD7  2DD9               	goto	u3070
  6945  0DD8                     u3071:
  6946  0DD8  2DD3               	goto	l142
  6947  0DD9                     u3070:
  6948  0DD9                     l2570:
  6949                           
  6950                           ;./_DHT11.h: 45:         _delay((unsigned long)((50)*(20000000/4000000.0)));
  6951  0DD9  3053               	movlw	83
  6952  0DDA  00F0               	movwf	??_Read_DTH11
  6953  0DDB                     u3397:
  6954  0DDB  0BF0               	decfsz	??_Read_DTH11,f
  6955  0DDC  2DDB               	goto	u3397
  6956  0DDD                     l2572:
  6957                           
  6958                           ;./_DHT11.h: 46:         if(RB0 == 1)
  6959  0DDD  1283               	bcf	3,5	;RP0=0, select bank0
  6960  0DDE  1303               	bcf	3,6	;RP1=0, select bank0
  6961  0DDF  1C06               	btfss	6,0	;volatile
  6962  0DE0  2DE2               	goto	u3081
  6963  0DE1  2DE3               	goto	u3080
  6964  0DE2                     u3081:
  6965  0DE2  2E06               	goto	l2576
  6966  0DE3                     u3080:
  6967  0DE3                     l2574:
  6968                           
  6969                           ;./_DHT11.h: 47:         {;./_DHT11.h: 48:             DATA[i] = DATA[i]<<1| 1;
  6970  0DE3  0877               	movf	Read_DTH11@i,w
  6971  0DE4  00F0               	movwf	??_Read_DTH11
  6972  0DE5  0770               	addwf	??_Read_DTH11,w
  6973  0DE6  3EA0               	addlw	(low (_DATA| 0))& (0+255)
  6974  0DE7  0084               	movwf	4
  6975  0DE8  1383               	bcf	3,7	;select IRP bank1
  6976  0DE9  0800               	movf	0,w
  6977  0DEA  00F1               	movwf	??_Read_DTH11+1
  6978  0DEB  0A84               	incf	4,f
  6979  0DEC  0800               	movf	0,w
  6980  0DED  00F2               	movwf	??_Read_DTH11+2
  6981  0DEE  1003               	clrc
  6982  0DEF  0DF1               	rlf	??_Read_DTH11+1,f
  6983  0DF0  0DF2               	rlf	??_Read_DTH11+2,f
  6984  0DF1  3001               	movlw	1
  6985  0DF2  0471               	iorwf	??_Read_DTH11+1,w
  6986  0DF3  00F3               	movwf	??_Read_DTH11+3
  6987  0DF4  3000               	movlw	0
  6988  0DF5  0472               	iorwf	??_Read_DTH11+2,w
  6989  0DF6  00F4               	movwf	??_Read_DTH11+4
  6990  0DF7  0877               	movf	Read_DTH11@i,w
  6991  0DF8  00F5               	movwf	??_Read_DTH11+5
  6992  0DF9  0775               	addwf	??_Read_DTH11+5,w
  6993  0DFA  3EA0               	addlw	(low (_DATA| 0))& (0+255)
  6994  0DFB  0084               	movwf	4
  6995  0DFC  0873               	movf	??_Read_DTH11+3,w
  6996  0DFD  0080               	movwf	0
  6997  0DFE  0A84               	incf	4,f
  6998  0DFF  0874               	movf	??_Read_DTH11+4,w
  6999  0E00  0080               	movwf	0
  7000  0E01                     l146:	
  7001                           ;./_DHT11.h: 49:             while(RB0 == 1){}
  7002                           
  7003  0E01  1806               	btfsc	6,0	;volatile
  7004  0E02  2E04               	goto	u3091
  7005  0E03  2E05               	goto	u3090
  7006  0E04                     u3091:
  7007  0E04  2E01               	goto	l146
  7008  0E05                     u3090:
  7009  0E05  2E1E               	goto	l2578
  7010  0E06                     l2576:
  7011  0E06  0877               	movf	Read_DTH11@i,w
  7012  0E07  00F0               	movwf	??_Read_DTH11
  7013  0E08  0770               	addwf	??_Read_DTH11,w
  7014  0E09  3EA0               	addlw	(low (_DATA| 0))& (0+255)
  7015  0E0A  0084               	movwf	4
  7016  0E0B  1383               	bcf	3,7	;select IRP bank1
  7017  0E0C  0800               	movf	0,w
  7018  0E0D  00F1               	movwf	??_Read_DTH11+1
  7019  0E0E  0A84               	incf	4,f
  7020  0E0F  0800               	movf	0,w
  7021  0E10  00F2               	movwf	??_Read_DTH11+2
  7022  0E11  1003               	clrc
  7023  0E12  0DF1               	rlf	??_Read_DTH11+1,f
  7024  0E13  0DF2               	rlf	??_Read_DTH11+2,f
  7025  0E14  0877               	movf	Read_DTH11@i,w
  7026  0E15  00F3               	movwf	??_Read_DTH11+3
  7027  0E16  0773               	addwf	??_Read_DTH11+3,w
  7028  0E17  3EA0               	addlw	(low (_DATA| 0))& (0+255)
  7029  0E18  0084               	movwf	4
  7030  0E19  0871               	movf	??_Read_DTH11+1,w
  7031  0E1A  0080               	movwf	0
  7032  0E1B  0A84               	incf	4,f
  7033  0E1C  0872               	movf	??_Read_DTH11+2,w
  7034  0E1D  0080               	movwf	0
  7035  0E1E                     l2578:
  7036                           
  7037                           ;./_DHT11.h: 52:        }
  7038  0E1E  3001               	movlw	1
  7039  0E1F  00F0               	movwf	??_Read_DTH11
  7040  0E20  0870               	movf	??_Read_DTH11,w
  7041  0E21  07F6               	addwf	Read_DTH11@ii,f
  7042  0E22                     l2580:
  7043  0E22  3008               	movlw	8
  7044  0E23  0276               	subwf	Read_DTH11@ii,w
  7045  0E24  1C03               	skipc
  7046  0E25  2E27               	goto	u3101
  7047  0E26  2E28               	goto	u3100
  7048  0E27                     u3101:
  7049  0E27  2DD3               	goto	l142
  7050  0E28                     u3100:
  7051  0E28                     l2582:
  7052                           
  7053                           ;./_DHT11.h: 53:     }
  7054  0E28  3001               	movlw	1
  7055  0E29  00F0               	movwf	??_Read_DTH11
  7056  0E2A  0870               	movf	??_Read_DTH11,w
  7057  0E2B  07F7               	addwf	Read_DTH11@i,f
  7058  0E2C                     l2584:
  7059  0E2C  3005               	movlw	5
  7060  0E2D  0277               	subwf	Read_DTH11@i,w
  7061  0E2E  1C03               	skipc
  7062  0E2F  2E31               	goto	u3111
  7063  0E30  2E32               	goto	u3110
  7064  0E31                     u3111:
  7065  0E31  2DD2               	goto	l2564
  7066  0E32                     u3110:
  7067  0E32                     l2586:
  7068                           
  7069                           ;./_DHT11.h: 54:     temp = DATA[2];
  7070  0E32  1683               	bsf	3,5	;RP0=1, select bank1
  7071  0E33  1303               	bcf	3,6	;RP1=0, select bank1
  7072  0E34  0824               	movf	(_DATA^(0+128)+4),w
  7073  0E35  00F0               	movwf	??_Read_DTH11
  7074  0E36  0870               	movf	??_Read_DTH11,w
  7075  0E37  1283               	bcf	3,5	;RP0=0, select bank0
  7076  0E38  1303               	bcf	3,6	;RP1=0, select bank0
  7077  0E39  00EE               	movwf	_temp
  7078                           
  7079                           ;./_DHT11.h: 55:     humidity = DATA[0];
  7080  0E3A  1683               	bsf	3,5	;RP0=1, select bank1
  7081  0E3B  1303               	bcf	3,6	;RP1=0, select bank1
  7082  0E3C  0820               	movf	_DATA^(0+128),w
  7083  0E3D  00F0               	movwf	??_Read_DTH11
  7084  0E3E  0870               	movf	??_Read_DTH11,w
  7085  0E3F  1283               	bcf	3,5	;RP0=0, select bank0
  7086  0E40  1303               	bcf	3,6	;RP1=0, select bank0
  7087  0E41  00ED               	movwf	_humidity
  7088  0E42                     l151:
  7089  0E42  0008               	return
  7090  0E43                     __end_of_Read_DTH11:
  7091                           
  7092                           	psect	text35
  7093  0C95                     __ptext35:	
  7094 ;; *************** function _LCD_Init *****************
  7095 ;; Defined at:
  7096 ;;		line 29 in file "./_lcd_module.h"
  7097 ;; Parameters:    Size  Location     Type
  7098 ;;		None
  7099 ;; Auto vars:     Size  Location     Type
  7100 ;;		None
  7101 ;; Return value:  Size  Location     Type
  7102 ;;                  1    wreg      void 
  7103 ;; Registers used:
  7104 ;;		wreg, status,2, status,0, pclath, cstack
  7105 ;; Tracked objects:
  7106 ;;		On entry : 0/0
  7107 ;;		On exit  : 0/0
  7108 ;;		Unchanged: 0/0
  7109 ;; Data sizes:     COMMON   BANK0   BANK1   BANK3   BANK2
  7110 ;;      Params:         0       0       0       0       0
  7111 ;;      Locals:         0       0       0       0       0
  7112 ;;      Temps:          2       0       0       0       0
  7113 ;;      Totals:         2       0       0       0       0
  7114 ;;Total ram usage:        2 bytes
  7115 ;; Hardware stack levels used:    1
  7116 ;; Hardware stack levels required when called:    2
  7117 ;; This function calls:
  7118 ;;		_LCD_Send4Bit
  7119 ;;		_LCD_SendCommand
  7120 ;; This function is called by:
  7121 ;;		_main
  7122 ;; This function uses a non-reentrant model
  7123 ;;
  7124                           
  7125                           
  7126                           ;psect for function _LCD_Init
  7127  0C95                     _LCD_Init:
  7128  0C95                     l2678:	
  7129                           ;incstack = 0
  7130                           ; Regs used in _LCD_Init: [wreg+status,2+status,0+pclath+cstack]
  7131                           
  7132                           
  7133                           ;./_lcd_module.h: 30:     TRISD = 0;
  7134  0C95  1683               	bsf	3,5	;RP0=1, select bank1
  7135  0C96  1303               	bcf	3,6	;RP1=0, select bank1
  7136  0C97  0188               	clrf	8	;volatile
  7137  0C98                     l2680:
  7138                           
  7139                           ;./_lcd_module.h: 31:     RD1 = 0;
  7140  0C98  1283               	bcf	3,5	;RP0=0, select bank0
  7141  0C99  1303               	bcf	3,6	;RP1=0, select bank0
  7142  0C9A  1088               	bcf	8,1	;volatile
  7143  0C9B                     l2682:
  7144                           
  7145                           ;./_lcd_module.h: 32:     _delay((unsigned long)((20)*(20000000/4000.0)));
  7146  0C9B  3082               	movlw	130
  7147  0C9C  00F5               	movwf	??_LCD_Init+1
  7148  0C9D  30DD               	movlw	221
  7149  0C9E  00F4               	movwf	??_LCD_Init
  7150  0C9F                     u3407:
  7151  0C9F  0BF4               	decfsz	??_LCD_Init,f
  7152  0CA0  2C9F               	goto	u3407
  7153  0CA1  0BF5               	decfsz	??_LCD_Init+1,f
  7154  0CA2  2C9F               	goto	u3407
  7155  0CA3  2CA4               	nop2
  7156  0CA4                     l2684:
  7157                           
  7158                           ;./_lcd_module.h: 34:     LCD_Send4Bit(0b0011);
  7159  0CA4  3003               	movlw	3
  7160  0CA5  120A  118A  2003  120A  158A  	fcall	_LCD_Send4Bit
  7161  0CAA                     l2686:
  7162                           
  7163                           ;./_lcd_module.h: 35:     _delay((unsigned long)((10)*(20000000/4000.0)));
  7164  0CAA  3041               	movlw	65
  7165  0CAB  00F5               	movwf	??_LCD_Init+1
  7166  0CAC  30EE               	movlw	238
  7167  0CAD  00F4               	movwf	??_LCD_Init
  7168  0CAE                     u3417:
  7169  0CAE  0BF4               	decfsz	??_LCD_Init,f
  7170  0CAF  2CAE               	goto	u3417
  7171  0CB0  0BF5               	decfsz	??_LCD_Init+1,f
  7172  0CB1  2CAE               	goto	u3417
  7173  0CB2  0000               	nop
  7174  0CB3                     l2688:
  7175                           
  7176                           ;./_lcd_module.h: 36:     LCD_Send4Bit(0b0011);
  7177  0CB3  3003               	movlw	3
  7178  0CB4  120A  118A  2003  120A  158A  	fcall	_LCD_Send4Bit
  7179  0CB9                     l2690:
  7180                           
  7181                           ;./_lcd_module.h: 37:     _delay((unsigned long)((10)*(20000000/4000.0)));
  7182  0CB9  3041               	movlw	65
  7183  0CBA  00F5               	movwf	??_LCD_Init+1
  7184  0CBB  30EE               	movlw	238
  7185  0CBC  00F4               	movwf	??_LCD_Init
  7186  0CBD                     u3427:
  7187  0CBD  0BF4               	decfsz	??_LCD_Init,f
  7188  0CBE  2CBD               	goto	u3427
  7189  0CBF  0BF5               	decfsz	??_LCD_Init+1,f
  7190  0CC0  2CBD               	goto	u3427
  7191  0CC1  0000               	nop
  7192  0CC2                     l2692:
  7193                           
  7194                           ;./_lcd_module.h: 38:     LCD_Send4Bit(0b0011);
  7195  0CC2  3003               	movlw	3
  7196  0CC3  120A  118A  2003  120A  158A  	fcall	_LCD_Send4Bit
  7197  0CC8                     l2694:
  7198                           
  7199                           ;./_lcd_module.h: 39:     _delay((unsigned long)((10)*(20000000/4000.0)));
  7200  0CC8  3041               	movlw	65
  7201  0CC9  00F5               	movwf	??_LCD_Init+1
  7202  0CCA  30EE               	movlw	238
  7203  0CCB  00F4               	movwf	??_LCD_Init
  7204  0CCC                     u3437:
  7205  0CCC  0BF4               	decfsz	??_LCD_Init,f
  7206  0CCD  2CCC               	goto	u3437
  7207  0CCE  0BF5               	decfsz	??_LCD_Init+1,f
  7208  0CCF  2CCC               	goto	u3437
  7209  0CD0  0000               	nop
  7210  0CD1                     l2696:
  7211                           
  7212                           ;./_lcd_module.h: 40:     LCD_Send4Bit(0b0010);
  7213  0CD1  3002               	movlw	2
  7214  0CD2  120A  118A  2003  120A  158A  	fcall	_LCD_Send4Bit
  7215  0CD7                     l2698:
  7216                           
  7217                           ;./_lcd_module.h: 41:     _delay((unsigned long)((10)*(20000000/4000.0)));
  7218  0CD7  3041               	movlw	65
  7219  0CD8  00F5               	movwf	??_LCD_Init+1
  7220  0CD9  30EE               	movlw	238
  7221  0CDA  00F4               	movwf	??_LCD_Init
  7222  0CDB                     u3447:
  7223  0CDB  0BF4               	decfsz	??_LCD_Init,f
  7224  0CDC  2CDB               	goto	u3447
  7225  0CDD  0BF5               	decfsz	??_LCD_Init+1,f
  7226  0CDE  2CDB               	goto	u3447
  7227  0CDF  0000               	nop
  7228  0CE0                     l2700:
  7229                           
  7230                           ;./_lcd_module.h: 43:     LCD_SendCommand( 0x28 );
  7231  0CE0  3028               	movlw	40
  7232  0CE1  160A  118A  2737  120A  158A  	fcall	_LCD_SendCommand
  7233  0CE6                     l2702:
  7234                           
  7235                           ;./_lcd_module.h: 44:     LCD_SendCommand( 0x0C);
  7236  0CE6  300C               	movlw	12
  7237  0CE7  160A  118A  2737  120A  158A  	fcall	_LCD_SendCommand
  7238  0CEC                     l2704:
  7239                           
  7240                           ;./_lcd_module.h: 45:     LCD_SendCommand( 0x06 );
  7241  0CEC  3006               	movlw	6
  7242  0CED  160A  118A  2737  120A  158A  	fcall	_LCD_SendCommand
  7243  0CF2                     l2706:
  7244                           
  7245                           ;./_lcd_module.h: 46:     LCD_SendCommand( 0x01 );
  7246  0CF2  3001               	movlw	1
  7247  0CF3  160A  118A  2737  120A  158A  	fcall	_LCD_SendCommand
  7248  0CF8                     l256:
  7249  0CF8  0008               	return
  7250  0CF9                     __end_of_LCD_Init:
  7251                           
  7252                           	psect	text36
  7253  1737                     __ptext36:	
  7254 ;; *************** function _LCD_SendCommand *****************
  7255 ;; Defined at:
  7256 ;;		line 24 in file "./_lcd_module.h"
  7257 ;; Parameters:    Size  Location     Type
  7258 ;;  command         1    wreg     unsigned char 
  7259 ;; Auto vars:     Size  Location     Type
  7260 ;;  command         1    3[COMMON] unsigned char 
  7261 ;; Return value:  Size  Location     Type
  7262 ;;                  1    wreg      void 
  7263 ;; Registers used:
  7264 ;;		wreg, status,2, status,0, pclath, cstack
  7265 ;; Tracked objects:
  7266 ;;		On entry : 0/0
  7267 ;;		On exit  : 0/0
  7268 ;;		Unchanged: 0/0
  7269 ;; Data sizes:     COMMON   BANK0   BANK1   BANK3   BANK2
  7270 ;;      Params:         0       0       0       0       0
  7271 ;;      Locals:         1       0       0       0       0
  7272 ;;      Temps:          1       0       0       0       0
  7273 ;;      Totals:         2       0       0       0       0
  7274 ;;Total ram usage:        2 bytes
  7275 ;; Hardware stack levels used:    1
  7276 ;; Hardware stack levels required when called:    1
  7277 ;; This function calls:
  7278 ;;		_LCD_Send4Bit
  7279 ;; This function is called by:
  7280 ;;		_LCD_Init
  7281 ;;		_LCD_PutChar
  7282 ;;		_LCD_Clear
  7283 ;;		_LCD_Gotoxy
  7284 ;; This function uses a non-reentrant model
  7285 ;;
  7286                           
  7287                           
  7288                           ;psect for function _LCD_SendCommand
  7289  1737                     _LCD_SendCommand:
  7290                           
  7291                           ;incstack = 0
  7292                           ; Regs used in _LCD_SendCommand: [wreg+status,2+status,0+pclath+cstack]
  7293                           ;LCD_SendCommand@command stored from wreg
  7294  1737  00F3               	movwf	LCD_SendCommand@command
  7295  1738                     l2296:
  7296                           
  7297                           ;./_lcd_module.h: 25:     LCD_Send4Bit (command >>4);
  7298  1738  0873               	movf	LCD_SendCommand@command,w
  7299  1739  00F2               	movwf	??_LCD_SendCommand
  7300  173A  3004               	movlw	4
  7301  173B                     u2725:
  7302  173B  1003               	clrc
  7303  173C  0CF2               	rrf	??_LCD_SendCommand,f
  7304  173D  3EFF               	addlw	-1
  7305  173E  1D03               	skipz
  7306  173F  2F3B               	goto	u2725
  7307  1740  0872               	movf	??_LCD_SendCommand,w
  7308  1741  120A  118A  2003  160A  118A  	fcall	_LCD_Send4Bit
  7309                           
  7310                           ;./_lcd_module.h: 26:     LCD_Send4Bit (command );
  7311  1746  0873               	movf	LCD_SendCommand@command,w
  7312  1747  120A  118A  2003  160A  118A  	fcall	_LCD_Send4Bit
  7313  174C                     l253:
  7314  174C  0008               	return
  7315  174D                     __end_of_LCD_SendCommand:
  7316                           
  7317                           	psect	text37
  7318  0003                     __ptext37:	
  7319 ;; *************** function _LCD_Send4Bit *****************
  7320 ;; Defined at:
  7321 ;;		line 12 in file "./_lcd_module.h"
  7322 ;; Parameters:    Size  Location     Type
  7323 ;;  a               1    wreg     unsigned char 
  7324 ;; Auto vars:     Size  Location     Type
  7325 ;;  a               1    1[COMMON] unsigned char 
  7326 ;; Return value:  Size  Location     Type
  7327 ;;                  1    wreg      void 
  7328 ;; Registers used:
  7329 ;;		wreg, status,2, status,0
  7330 ;; Tracked objects:
  7331 ;;		On entry : 0/0
  7332 ;;		On exit  : 0/0
  7333 ;;		Unchanged: 0/0
  7334 ;; Data sizes:     COMMON   BANK0   BANK1   BANK3   BANK2
  7335 ;;      Params:         0       0       0       0       0
  7336 ;;      Locals:         1       0       0       0       0
  7337 ;;      Temps:          1       0       0       0       0
  7338 ;;      Totals:         2       0       0       0       0
  7339 ;;Total ram usage:        2 bytes
  7340 ;; Hardware stack levels used:    1
  7341 ;; This function calls:
  7342 ;;		Nothing
  7343 ;; This function is called by:
  7344 ;;		_LCD_SendCommand
  7345 ;;		_LCD_Init
  7346 ;; This function uses a non-reentrant model
  7347 ;;
  7348                           
  7349                           
  7350                           ;psect for function _LCD_Send4Bit
  7351  0003                     _LCD_Send4Bit:
  7352                           
  7353                           ;incstack = 0
  7354                           ; Regs used in _LCD_Send4Bit: [wreg+status,2+status,0]
  7355                           ;LCD_Send4Bit@a stored from wreg
  7356  0003  00F1               	movwf	LCD_Send4Bit@a
  7357  0004                     l1902:
  7358                           
  7359                           ;./_lcd_module.h: 13:     RD4= a & 0x01;
  7360  0004  1871               	btfsc	LCD_Send4Bit@a,0
  7361  0005  2807               	goto	u1671
  7362  0006  280B               	goto	u1670
  7363  0007                     u1671:
  7364  0007  1283               	bcf	3,5	;RP0=0, select bank0
  7365  0008  1303               	bcf	3,6	;RP1=0, select bank0
  7366  0009  1608               	bsf	8,4	;volatile
  7367  000A  280E               	goto	u1684
  7368  000B                     u1670:
  7369  000B  1283               	bcf	3,5	;RP0=0, select bank0
  7370  000C  1303               	bcf	3,6	;RP1=0, select bank0
  7371  000D  1208               	bcf	8,4	;volatile
  7372  000E                     u1684:
  7373  000E                     l1904:
  7374                           
  7375                           ;./_lcd_module.h: 14:     RD5=(a>>1)& 0x01;
  7376  000E  0871               	movf	LCD_Send4Bit@a,w
  7377  000F  00F0               	movwf	??_LCD_Send4Bit
  7378  0010  3001               	movlw	1
  7379  0011                     u1695:
  7380  0011  1003               	clrc
  7381  0012  0CF0               	rrf	??_LCD_Send4Bit,f
  7382  0013  3EFF               	addlw	-1
  7383  0014  1D03               	skipz
  7384  0015  2811               	goto	u1695
  7385  0016  1870               	btfsc	??_LCD_Send4Bit,0
  7386  0017  2819               	goto	u1701
  7387  0018  281D               	goto	u1700
  7388  0019                     u1701:
  7389  0019  1283               	bcf	3,5	;RP0=0, select bank0
  7390  001A  1303               	bcf	3,6	;RP1=0, select bank0
  7391  001B  1688               	bsf	8,5	;volatile
  7392  001C  2820               	goto	u1714
  7393  001D                     u1700:
  7394  001D  1283               	bcf	3,5	;RP0=0, select bank0
  7395  001E  1303               	bcf	3,6	;RP1=0, select bank0
  7396  001F  1288               	bcf	8,5	;volatile
  7397  0020                     u1714:
  7398                           
  7399                           ;./_lcd_module.h: 15:     RD6=(a>>2)& 0x01;
  7400  0020  0871               	movf	LCD_Send4Bit@a,w
  7401  0021  00F0               	movwf	??_LCD_Send4Bit
  7402  0022  3002               	movlw	2
  7403  0023                     u1725:
  7404  0023  1003               	clrc
  7405  0024  0CF0               	rrf	??_LCD_Send4Bit,f
  7406  0025  3EFF               	addlw	-1
  7407  0026  1D03               	skipz
  7408  0027  2823               	goto	u1725
  7409  0028  1870               	btfsc	??_LCD_Send4Bit,0
  7410  0029  282B               	goto	u1731
  7411  002A  282F               	goto	u1730
  7412  002B                     u1731:
  7413  002B  1283               	bcf	3,5	;RP0=0, select bank0
  7414  002C  1303               	bcf	3,6	;RP1=0, select bank0
  7415  002D  1708               	bsf	8,6	;volatile
  7416  002E  2832               	goto	u1744
  7417  002F                     u1730:
  7418  002F  1283               	bcf	3,5	;RP0=0, select bank0
  7419  0030  1303               	bcf	3,6	;RP1=0, select bank0
  7420  0031  1308               	bcf	8,6	;volatile
  7421  0032                     u1744:
  7422                           
  7423                           ;./_lcd_module.h: 16:     RD7=(a>>3)& 0x01;
  7424  0032  0871               	movf	LCD_Send4Bit@a,w
  7425  0033  00F0               	movwf	??_LCD_Send4Bit
  7426  0034  3003               	movlw	3
  7427  0035                     u1755:
  7428  0035  1003               	clrc
  7429  0036  0CF0               	rrf	??_LCD_Send4Bit,f
  7430  0037  3EFF               	addlw	-1
  7431  0038  1D03               	skipz
  7432  0039  2835               	goto	u1755
  7433  003A  1870               	btfsc	??_LCD_Send4Bit,0
  7434  003B  283D               	goto	u1761
  7435  003C  2841               	goto	u1760
  7436  003D                     u1761:
  7437  003D  1283               	bcf	3,5	;RP0=0, select bank0
  7438  003E  1303               	bcf	3,6	;RP1=0, select bank0
  7439  003F  1788               	bsf	8,7	;volatile
  7440  0040  2844               	goto	u1774
  7441  0041                     u1760:
  7442  0041  1283               	bcf	3,5	;RP0=0, select bank0
  7443  0042  1303               	bcf	3,6	;RP1=0, select bank0
  7444  0043  1388               	bcf	8,7	;volatile
  7445  0044                     u1774:
  7446  0044                     l1906:
  7447                           
  7448                           ;./_lcd_module.h: 18:     RD0 = 1;
  7449  0044  1408               	bsf	8,0	;volatile
  7450  0045                     l1908:
  7451                           
  7452                           ;./_lcd_module.h: 19:     _delay((unsigned long)((5)*(20000000/4000000.0)));
  7453  0045  3008               	movlw	8
  7454  0046  00F0               	movwf	??_LCD_Send4Bit
  7455  0047                     u3457:
  7456  0047  0BF0               	decfsz	??_LCD_Send4Bit,f
  7457  0048  2847               	goto	u3457
  7458  0049                     l1910:
  7459                           
  7460                           ;./_lcd_module.h: 20:     RD0 = 0;
  7461  0049  1283               	bcf	3,5	;RP0=0, select bank0
  7462  004A  1303               	bcf	3,6	;RP1=0, select bank0
  7463  004B  1008               	bcf	8,0	;volatile
  7464  004C                     l1912:
  7465                           
  7466                           ;./_lcd_module.h: 21:     _delay((unsigned long)((40)*(20000000/4000000.0)));
  7467  004C  3042               	movlw	66
  7468  004D  00F0               	movwf	??_LCD_Send4Bit
  7469  004E                     u3467:
  7470  004E  0BF0               	decfsz	??_LCD_Send4Bit,f
  7471  004F  284E               	goto	u3467
  7472  0050  0000               	nop
  7473  0051                     l250:
  7474  0051  0008               	return
  7475  0052                     __end_of_LCD_Send4Bit:
  7476                           
  7477                           	psect	text38
  7478  1765                     __ptext38:	
  7479 ;; *************** function _Init_Bluetooth *****************
  7480 ;; Defined at:
  7481 ;;		line 2 in file "./bluetooth_module.h"
  7482 ;; Parameters:    Size  Location     Type
  7483 ;;		None
  7484 ;; Auto vars:     Size  Location     Type
  7485 ;;		None
  7486 ;; Return value:  Size  Location     Type
  7487 ;;                  1    wreg      void 
  7488 ;; Registers used:
  7489 ;;		wreg
  7490 ;; Tracked objects:
  7491 ;;		On entry : 0/0
  7492 ;;		On exit  : 0/0
  7493 ;;		Unchanged: 0/0
  7494 ;; Data sizes:     COMMON   BANK0   BANK1   BANK3   BANK2
  7495 ;;      Params:         0       0       0       0       0
  7496 ;;      Locals:         0       0       0       0       0
  7497 ;;      Temps:          0       0       0       0       0
  7498 ;;      Totals:         0       0       0       0       0
  7499 ;;Total ram usage:        0 bytes
  7500 ;; Hardware stack levels used:    1
  7501 ;; This function calls:
  7502 ;;		Nothing
  7503 ;; This function is called by:
  7504 ;;		_main
  7505 ;; This function uses a non-reentrant model
  7506 ;;
  7507                           
  7508                           
  7509                           ;psect for function _Init_Bluetooth
  7510  1765                     _Init_Bluetooth:
  7511  1765                     l2638:	
  7512                           ;incstack = 0
  7513                           ; Regs used in _Init_Bluetooth: [wreg]
  7514                           
  7515                           
  7516                           ;./bluetooth_module.h: 5:     TRISC6=1;
  7517  1765  1683               	bsf	3,5	;RP0=1, select bank1
  7518  1766  1303               	bcf	3,6	;RP1=0, select bank1
  7519  1767  1707               	bsf	7,6	;volatile
  7520                           
  7521                           ;./bluetooth_module.h: 6:     TRISC7=1;
  7522  1768  1787               	bsf	7,7	;volatile
  7523                           
  7524                           ;./bluetooth_module.h: 9:     BRGH=1;
  7525  1769  1518               	bsf	24,2	;volatile
  7526  176A                     l2640:
  7527                           
  7528                           ;./bluetooth_module.h: 10:     SPBRG =129;
  7529  176A  3081               	movlw	129
  7530  176B  0099               	movwf	25	;volatile
  7531  176C                     l2642:
  7532                           
  7533                           ;./bluetooth_module.h: 13:     SYNC=0;
  7534  176C  1218               	bcf	24,4	;volatile
  7535  176D                     l2644:
  7536                           
  7537                           ;./bluetooth_module.h: 14:     SPEN=1;
  7538  176D  1283               	bcf	3,5	;RP0=0, select bank0
  7539  176E  1303               	bcf	3,6	;RP1=0, select bank0
  7540  176F  1798               	bsf	24,7	;volatile
  7541  1770                     l2646:
  7542                           
  7543                           ;./bluetooth_module.h: 17:     RX9=0;
  7544  1770  1318               	bcf	24,6	;volatile
  7545  1771                     l2648:
  7546                           
  7547                           ;./bluetooth_module.h: 18:     TX9=0;
  7548  1771  1683               	bsf	3,5	;RP0=1, select bank1
  7549  1772  1303               	bcf	3,6	;RP1=0, select bank1
  7550  1773  1318               	bcf	24,6	;volatile
  7551  1774                     l2650:
  7552                           
  7553                           ;./bluetooth_module.h: 21:     TXEN=1;
  7554  1774  1698               	bsf	24,5	;volatile
  7555  1775                     l2652:
  7556                           
  7557                           ;./bluetooth_module.h: 22:     CREN=1;
  7558  1775  1283               	bcf	3,5	;RP0=0, select bank0
  7559  1776  1303               	bcf	3,6	;RP1=0, select bank0
  7560  1777  1618               	bsf	24,4	;volatile
  7561  1778                     l2654:
  7562                           
  7563                           ;./bluetooth_module.h: 25:     GIE = 1;
  7564  1778  178B               	bsf	11,7	;volatile
  7565  1779                     l2656:
  7566                           
  7567                           ;./bluetooth_module.h: 26:     PEIE= 1;
  7568  1779  170B               	bsf	11,6	;volatile
  7569  177A                     l2658:
  7570                           
  7571                           ;./bluetooth_module.h: 29:     RCIE=1;
  7572  177A  1683               	bsf	3,5	;RP0=1, select bank1
  7573  177B  1303               	bcf	3,6	;RP1=0, select bank1
  7574  177C  168C               	bsf	12,5	;volatile
  7575  177D                     l2660:
  7576                           
  7577                           ;./bluetooth_module.h: 30:     TXIE=1;
  7578  177D  160C               	bsf	12,4	;volatile
  7579  177E                     l220:
  7580  177E  0008               	return
  7581  177F                     __end_of_Init_Bluetooth:
  7582                           
  7583                           	psect	text39
  7584  0ABF                     __ptext39:	
  7585 ;; *************** function _DHT11_start *****************
  7586 ;; Defined at:
  7587 ;;		line 18 in file "./_DHT11.h"
  7588 ;; Parameters:    Size  Location     Type
  7589 ;;		None
  7590 ;; Auto vars:     Size  Location     Type
  7591 ;;		None
  7592 ;; Return value:  Size  Location     Type
  7593 ;;                  1    wreg      unsigned char 
  7594 ;; Registers used:
  7595 ;;		wreg
  7596 ;; Tracked objects:
  7597 ;;		On entry : 0/0
  7598 ;;		On exit  : 0/0
  7599 ;;		Unchanged: 0/0
  7600 ;; Data sizes:     COMMON   BANK0   BANK1   BANK3   BANK2
  7601 ;;      Params:         0       0       0       0       0
  7602 ;;      Locals:         0       0       0       0       0
  7603 ;;      Temps:          2       0       0       0       0
  7604 ;;      Totals:         2       0       0       0       0
  7605 ;;Total ram usage:        2 bytes
  7606 ;; Hardware stack levels used:    1
  7607 ;; This function calls:
  7608 ;;		Nothing
  7609 ;; This function is called by:
  7610 ;;		_main
  7611 ;; This function uses a non-reentrant model
  7612 ;;
  7613                           
  7614                           
  7615                           ;psect for function _DHT11_start
  7616  0ABF                     _DHT11_start:
  7617  0ABF                     l2540:	
  7618                           ;incstack = 0
  7619                           ; Regs used in _DHT11_start: [wreg]
  7620                           
  7621                           
  7622                           ;./_DHT11.h: 21:     TRISB0 = 0;
  7623  0ABF  1683               	bsf	3,5	;RP0=1, select bank1
  7624  0AC0  1303               	bcf	3,6	;RP1=0, select bank1
  7625  0AC1  1006               	bcf	6,0	;volatile
  7626                           
  7627                           ;./_DHT11.h: 22:     RB0 = 0;
  7628  0AC2  1283               	bcf	3,5	;RP0=0, select bank0
  7629  0AC3  1303               	bcf	3,6	;RP1=0, select bank0
  7630  0AC4  1006               	bcf	6,0	;volatile
  7631  0AC5                     l2542:
  7632                           
  7633                           ;./_DHT11.h: 23:     _delay((unsigned long)((30)*(20000000/4000.0)));
  7634  0AC5  30C3               	movlw	195
  7635  0AC6  00F1               	movwf	??_DHT11_start+1
  7636  0AC7  30CD               	movlw	205
  7637  0AC8  00F0               	movwf	??_DHT11_start
  7638  0AC9                     u3477:
  7639  0AC9  0BF0               	decfsz	??_DHT11_start,f
  7640  0ACA  2AC9               	goto	u3477
  7641  0ACB  0BF1               	decfsz	??_DHT11_start+1,f
  7642  0ACC  2AC9               	goto	u3477
  7643  0ACD                     l2544:
  7644                           
  7645                           ;./_DHT11.h: 24:     RB0 = 1;
  7646  0ACD  1283               	bcf	3,5	;RP0=0, select bank0
  7647  0ACE  1303               	bcf	3,6	;RP1=0, select bank0
  7648  0ACF  1406               	bsf	6,0	;volatile
  7649  0AD0                     l2546:
  7650                           
  7651                           ;./_DHT11.h: 25:     TRISB0 = 1;
  7652  0AD0  1683               	bsf	3,5	;RP0=1, select bank1
  7653  0AD1  1303               	bcf	3,6	;RP1=0, select bank1
  7654  0AD2  1406               	bsf	6,0	;volatile
  7655                           
  7656                           ;./_DHT11.h: 27:     _delay((unsigned long)((40)*(20000000/4000000.0)));
  7657  0AD3  3042               	movlw	66
  7658  0AD4  00F0               	movwf	??_DHT11_start
  7659  0AD5                     u3487:
  7660  0AD5  0BF0               	decfsz	??_DHT11_start,f
  7661  0AD6  2AD5               	goto	u3487
  7662  0AD7  0000               	nop
  7663  0AD8                     l2548:
  7664                           
  7665                           ;./_DHT11.h: 28:     if(RB0 == 0)
  7666  0AD8  1283               	bcf	3,5	;RP0=0, select bank0
  7667  0AD9  1303               	bcf	3,6	;RP1=0, select bank0
  7668  0ADA  1806               	btfsc	6,0	;volatile
  7669  0ADB  2ADD               	goto	u3051
  7670  0ADC  2ADE               	goto	u3050
  7671  0ADD                     u3051:
  7672  0ADD  2AEC               	goto	l135
  7673  0ADE                     u3050:
  7674  0ADE                     l2550:
  7675                           
  7676                           ;./_DHT11.h: 29:     {;./_DHT11.h: 30:         _delay((unsigned long)((80)*(20000000/400
      +                          0000.0)));
  7677  0ADE  3085               	movlw	133
  7678  0ADF  00F0               	movwf	??_DHT11_start
  7679  0AE0                     u3497:
  7680  0AE0  0BF0               	decfsz	??_DHT11_start,f
  7681  0AE1  2AE0               	goto	u3497
  7682  0AE2                     l2552:
  7683                           
  7684                           ;./_DHT11.h: 31:         if(RB0 == 1)
  7685  0AE2  1283               	bcf	3,5	;RP0=0, select bank0
  7686  0AE3  1303               	bcf	3,6	;RP1=0, select bank0
  7687  0AE4  1C06               	btfss	6,0	;volatile
  7688  0AE5  2AE7               	goto	u3061
  7689  0AE6  2AE8               	goto	u3060
  7690  0AE7                     u3061:
  7691  0AE7  2AEC               	goto	l135
  7692  0AE8                     u3060:
  7693  0AE8                     l2554:
  7694                           
  7695                           ;./_DHT11.h: 32:         {;./_DHT11.h: 33:             _delay((unsigned long)((80)*(2000
      +                          0000/4000000.0)));
  7696  0AE8  3085               	movlw	133
  7697  0AE9  00F0               	movwf	??_DHT11_start
  7698  0AEA                     u3507:
  7699  0AEA  0BF0               	decfsz	??_DHT11_start,f
  7700  0AEB  2AEA               	goto	u3507
  7701  0AEC                     l135:
  7702  0AEC  0008               	return
  7703  0AED                     __end_of_DHT11_start:
  7704                           
  7705                           	psect	text40
  7706  1723                     __ptext40:	
  7707 ;; *************** function _BT_get_char *****************
  7708 ;; Defined at:
  7709 ;;		line 58 in file "./bluetooth_module.h"
  7710 ;; Parameters:    Size  Location     Type
  7711 ;;		None
  7712 ;; Auto vars:     Size  Location     Type
  7713 ;;		None
  7714 ;; Return value:  Size  Location     Type
  7715 ;;                  1    wreg      unsigned char 
  7716 ;; Registers used:
  7717 ;;		wreg
  7718 ;; Tracked objects:
  7719 ;;		On entry : 0/0
  7720 ;;		On exit  : 0/0
  7721 ;;		Unchanged: 0/0
  7722 ;; Data sizes:     COMMON   BANK0   BANK1   BANK3   BANK2
  7723 ;;      Params:         0       0       0       0       0
  7724 ;;      Locals:         0       0       0       0       0
  7725 ;;      Temps:          0       0       0       0       0
  7726 ;;      Totals:         0       0       0       0       0
  7727 ;;Total ram usage:        0 bytes
  7728 ;; Hardware stack levels used:    1
  7729 ;; This function calls:
  7730 ;;		Nothing
  7731 ;; This function is called by:
  7732 ;;		_main
  7733 ;; This function uses a non-reentrant model
  7734 ;;
  7735                           
  7736                           
  7737                           ;psect for function _BT_get_char
  7738  1723                     _BT_get_char:
  7739  1723                     l2662:	
  7740                           ;incstack = 0
  7741                           ; Regs used in _BT_get_char: [wreg]
  7742                           
  7743                           
  7744                           ;./bluetooth_module.h: 60:     if(OERR)
  7745  1723  1283               	bcf	3,5	;RP0=0, select bank0
  7746  1724  1303               	bcf	3,6	;RP1=0, select bank0
  7747  1725  1C98               	btfss	24,1	;volatile
  7748  1726  2F28               	goto	u3161
  7749  1727  2F29               	goto	u3160
  7750  1728                     u3161:
  7751  1728  2F2B               	goto	l241
  7752  1729                     u3160:
  7753  1729                     l2664:
  7754                           
  7755                           ;./bluetooth_module.h: 61:     {;./bluetooth_module.h: 62:         CREN = 0;
  7756  1729  1218               	bcf	24,4	;volatile
  7757                           
  7758                           ;./bluetooth_module.h: 63:         CREN = 1;
  7759  172A  1618               	bsf	24,4	;volatile
  7760  172B                     l241:	
  7761                           ;./bluetooth_module.h: 64:     }
  7762                           
  7763                           
  7764                           ;./bluetooth_module.h: 66:     if(RCIF==1)
  7765  172B  1E8C               	btfss	12,5	;volatile
  7766  172C  2F2E               	goto	u3171
  7767  172D  2F2F               	goto	u3170
  7768  172E                     u3171:
  7769  172E  2F35               	goto	l2674
  7770  172F                     u3170:
  7771  172F                     l243:
  7772  172F  1E8C               	btfss	12,5	;volatile
  7773  1730  2F32               	goto	u3181
  7774  1731  2F33               	goto	u3180
  7775  1732                     u3181:
  7776  1732  2F2F               	goto	l243
  7777  1733                     u3180:
  7778  1733                     l2668:
  7779                           
  7780                           ;./bluetooth_module.h: 69:     return RCREG;
  7781  1733  081A               	movf	26,w	;volatile
  7782  1734  2F36               	goto	l246
  7783  1735                     l2674:
  7784                           
  7785                           ;./bluetooth_module.h: 72:         return 0;
  7786  1735  3000               	movlw	0
  7787  1736                     l246:
  7788  1736  0008               	return
  7789  1737                     __end_of_BT_get_char:
  7790  007E                     btemp	set	126	;btemp
  7791  007E                     wtemp0	set	126
  7792                           
  7793                           	psect	config
  7794                           
  7795                           ;Config register CONFIG @ 0x2007
  7796                           ;	Oscillator Selection bits
  7797                           ;	FOSC = HS, HS oscillator
  7798                           ;	Watchdog Timer Enable bit
  7799                           ;	WDTE = OFF, WDT disabled
  7800                           ;	Power-up Timer Enable bit
  7801                           ;	PWRTE = ON, PWRT enabled
  7802                           ;	Brown-out Reset Enable bit
  7803                           ;	BOREN = ON, BOR enabled
  7804                           ;	Low-Voltage (Single-Supply) In-Circuit Serial Programming Enable bit
  7805                           ;	LVP = OFF, RB3 is digital I/O, HV on MCLR must be used for programming
  7806                           ;	Data EEPROM Memory Code Protection bit
  7807                           ;	CPD = OFF, Data EEPROM code protection off
  7808                           ;	Flash Program Memory Write Enable bits
  7809                           ;	WRT = OFF, Write protection off; all program memory may be written to by EECON control
  7810                           ;	In-Circuit Debugger Mode bit
  7811                           ;	DEBUG = 0x1, unprogrammed default
  7812                           ;	Flash Program Memory Code Protection bit
  7813                           ;	CP = OFF, Code protection off
  7814  2007                     	org	8199
  7815  2007  3F72               	dw	16242

Data Sizes:
    Strings     541
    Constant    0
    Data        0
    BSS         14
    Persistent  0
    Stack       0

Auto Spaces:
    Space          Size  Autos    Used
    COMMON           14     14      14
    BANK0            80     77      79
    BANK1            80      0      12
    BANK3            96      0       0
    BANK2            96      0       0

Pointer List with Targets:

    LCD_PutString@s	PTR unsigned char  size(2) Largest target is 12
		 -> STR_2(CODE[9]), STR_1(CODE[12]), 

    BT_load_string@string	PTR unsigned char  size(2) Largest target is 42
		 -> STR_30(CODE[16]), STR_29(CODE[16]), STR_28(CODE[16]), STR_27(CODE[38]), 
		 -> STR_26(CODE[37]), STR_25(CODE[41]), STR_24(CODE[40]), STR_23(CODE[7]), 
		 -> STR_22(CODE[11]), STR_21(CODE[7]), STR_20(CODE[7]), STR_19(CODE[16]), 
		 -> STR_18(CODE[4]), STR_17(CODE[3]), STR_16(CODE[15]), STR_15(CODE[4]), 
		 -> STR_14(CODE[3]), STR_13(CODE[17]), STR_12(CODE[3]), STR_11(CODE[30]), 
		 -> STR_10(CODE[6]), STR_9(CODE[33]), STR_8(CODE[18]), STR_7(CODE[18]), 
		 -> STR_6(CODE[15]), STR_5(CODE[38]), STR_4(CODE[42]), STR_3(CODE[26]), 
		 -> getStringData@buff(BANK0[2]), 

    sp__getStringData	PTR unsigned char  size(1) Largest target is 2
		 -> getStringData@buff(BANK0[2]), 


Critical Paths under _main in COMMON

    _main->_BT_load_string
    _temp_warning->_BT_load_string
    _print_option_BT->_BT_load_string
    _print_Temp_Humi_LCD->___awdiv
    _LCD_PutString->_LCD_PutChar
    _LCD_PutChar->_LCD_SendCommand
    _LCD_Gotoxy->_LCD_SendCommand
    _LCD_Clear->_LCD_SendCommand
    _humi_warning->_BT_load_string
    _control_BT->_BT_load_string
    _print_status->_BT_load_string
    _getStringData->___awdiv
    _BT_load_string->_getStringData
    _runFood->_rotation0
    _runFood->_rotation90
    _distance->___xxtofl
    ___fltol->___xxtofl
    ___flmul->___xxtofl
    ___fldiv->___xxtofl
    _LCD_Init->_LCD_SendCommand
    _LCD_SendCommand->_LCD_Send4Bit

Critical Paths under _main in BANK0

    _main->_print_status
    _control_BT->_print_status
    _print_status->_get_level_food
    _get_level_food->_distance
    _BT_load_string->_getStringData
    _auto_food->_distance
    _distance->___fltol
    ___fltol->___fldiv
    ___fldiv->___flmul

Critical Paths under _main in BANK1

    None.

Critical Paths under _main in BANK3

    None.

Critical Paths under _main in BANK2

    None.

Call Graph Tables:

 ---------------------------------------------------------------------------------
 (Depth) Function   	        Calls       Base Space   Used Autos Params    Refs
 ---------------------------------------------------------------------------------
 (0) _main                                                 3     3      0   38430
                                             74 BANK0      3     3      0
                        _BT_get_char
                     _BT_load_string
                        _DHT11_start
                     _Init_Bluetooth
                           _LCD_Init
                         _Read_DTH11
                          _auto_food
                       _broadcast_BT
                         _control_BT
                       _humi_warning
                           _init_fan
                _print_Temp_Humi_LCD
                    _print_option_BT
                       _print_status
                       _temp_warning
                         _water_init
                        _water_start
 ---------------------------------------------------------------------------------
 (1) _water_start                                          0     0      0       0
 ---------------------------------------------------------------------------------
 (1) _water_init                                           0     0      0       0
 ---------------------------------------------------------------------------------
 (1) _temp_warning                                         3     3      0    2347
                                              3 BANK0      3     3      0
                     _BT_load_string
                       _broadcast_BT
 ---------------------------------------------------------------------------------
 (1) _print_option_BT                                      0     0      0    2347
                     _BT_load_string
                       _broadcast_BT
 ---------------------------------------------------------------------------------
 (1) _print_Temp_Humi_LCD                                  3     3      0    3035
                                              9 COMMON     3     3      0
                          _LCD_Clear
                         _LCD_Gotoxy
                        _LCD_PutChar
                      _LCD_PutString
                            ___awdiv
                            ___awmod
                          _checkTemp
 ---------------------------------------------------------------------------------
 (2) _checkTemp                                            0     0      0       0
                             _fan_on
 ---------------------------------------------------------------------------------
 (2) _LCD_PutString                                        2     0      2     351
                                              5 COMMON     2     0      2
                        _LCD_PutChar
 ---------------------------------------------------------------------------------
 (3) _LCD_PutChar                                          1     1      0     154
                                              4 COMMON     1     1      0
                    _LCD_SendCommand
 ---------------------------------------------------------------------------------
 (2) _LCD_Gotoxy                                           4     3      1     450
                                              4 COMMON     4     3      1
                    _LCD_SendCommand
 ---------------------------------------------------------------------------------
 (2) _LCD_Clear                                            2     2      0     132
                                              4 COMMON     2     2      0
                    _LCD_SendCommand
 ---------------------------------------------------------------------------------
 (1) _init_fan                                             0     0      0       0
 ---------------------------------------------------------------------------------
 (1) _humi_warning                                         3     3      0    2347
                                              3 BANK0      3     3      0
                     _BT_load_string
                       _broadcast_BT
 ---------------------------------------------------------------------------------
 (1) _control_BT                                           0     0      0   11594
                     _BT_load_string
                       _broadcast_BT
                            _fan_off
                             _fan_on
                       _print_status
                            _runFood
 ---------------------------------------------------------------------------------
 (1) _print_status                                         2     2      0    9155
                                             72 BANK0      2     2      0
                     _BT_load_string
                       _broadcast_BT
                      _getStringData
                     _get_level_food
 ---------------------------------------------------------------------------------
 (2) _get_level_food                                       2     2      0    4833
                                             70 BANK0      2     2      0
                           _distance
 ---------------------------------------------------------------------------------
 (2) _getStringData                                        6     6      0    1975
                                              9 COMMON     3     3      0
                                              0 BANK0      3     3      0
                            ___awdiv
                            ___awmod
 ---------------------------------------------------------------------------------
 (3) ___awmod                                              7     3      4     904
                                              0 COMMON     7     3      4
 ---------------------------------------------------------------------------------
 (3) ___awdiv                                              9     5      4     908
                                              0 COMMON     9     5      4
 ---------------------------------------------------------------------------------
 (2) _broadcast_BT                                         3     3      0       0
                                              0 COMMON     3     3      0
 ---------------------------------------------------------------------------------
 (2) _BT_load_string                                       2     0      2    2347
                                             12 COMMON     2     0      2
                       _BT_load_char
                      _getStringData (ARG)
 ---------------------------------------------------------------------------------
 (3) _BT_load_char                                         1     1      0      22
                                              0 COMMON     1     1      0
 ---------------------------------------------------------------------------------
 (3) _fan_on                                               0     0      0       0
 ---------------------------------------------------------------------------------
 (2) _fan_off                                              0     0      0       0
 ---------------------------------------------------------------------------------
 (1) _auto_food                                            0     0      0    4858
                           _distance
                            _runFood
 ---------------------------------------------------------------------------------
 (2) _runFood                                              3     3      0      92
                                              4 COMMON     3     3      0
                          _rotation0
                         _rotation90
 ---------------------------------------------------------------------------------
 (3) _rotation90                                           4     4      0      46
                                              0 COMMON     4     4      0
 ---------------------------------------------------------------------------------
 (3) _rotation0                                            4     4      0      46
                                              0 COMMON     4     4      0
 ---------------------------------------------------------------------------------
 (3) _distance                                             7     5      2    4766
                                             63 BANK0      7     5      2
                            ___fldiv
                            ___flmul
                            ___fltol
                           ___xxtofl
 ---------------------------------------------------------------------------------
 (4) ___xxtofl                                            14    10      4     474
                                              0 COMMON    14    10      4
 ---------------------------------------------------------------------------------
 (4) ___fltol                                             11     7      4     381
                                             52 BANK0     11     7      4
                            ___fldiv (ARG)
                            ___flmul (ARG)
                           ___xxtofl (ARG)
 ---------------------------------------------------------------------------------
 (4) ___flmul                                             26    18      8    2569
                                              0 BANK0     26    18      8
                          __Umul8_16
                           ___xxtofl (ARG)
 ---------------------------------------------------------------------------------
 (5) __Umul8_16                                            9     7      2     799
                                              0 COMMON     9     7      2
 ---------------------------------------------------------------------------------
 (4) ___fldiv                                             26    18      8    1273
                                             26 BANK0     26    18      8
                            ___flmul (ARG)
                           ___xxtofl (ARG)
 ---------------------------------------------------------------------------------
 (1) _Read_DTH11                                           8     8      0     180
                                              0 COMMON     8     8      0
 ---------------------------------------------------------------------------------
 (1) _LCD_Init                                             2     2      0     220
                                              4 COMMON     2     2      0
                       _LCD_Send4Bit
                    _LCD_SendCommand
 ---------------------------------------------------------------------------------
 (4) _LCD_SendCommand                                      2     2      0     132
                                              2 COMMON     2     2      0
                       _LCD_Send4Bit
 ---------------------------------------------------------------------------------
 (5) _LCD_Send4Bit                                         2     2      0      88
                                              0 COMMON     2     2      0
 ---------------------------------------------------------------------------------
 (1) _Init_Bluetooth                                       0     0      0       0
 ---------------------------------------------------------------------------------
 (1) _DHT11_start                                          2     2      0       0
                                              0 COMMON     2     2      0
 ---------------------------------------------------------------------------------
 (1) _BT_get_char                                          0     0      0       0
 ---------------------------------------------------------------------------------
 Estimated maximum stack depth 5
 ---------------------------------------------------------------------------------

 Call Graph Graphs:

 _main (ROOT)
   _BT_get_char
   _BT_load_string
     _BT_load_char
     _getStringData (ARG)
       ___awdiv
       ___awmod
   _DHT11_start
   _Init_Bluetooth
   _LCD_Init
     _LCD_Send4Bit
     _LCD_SendCommand
       _LCD_Send4Bit
   _Read_DTH11
   _auto_food
     _distance
       ___fldiv
         ___flmul (ARG)
           __Umul8_16
           ___xxtofl (ARG)
         ___xxtofl (ARG)
       ___flmul
         __Umul8_16
         ___xxtofl (ARG)
       ___fltol
         ___fldiv (ARG)
           ___flmul (ARG)
             __Umul8_16
             ___xxtofl (ARG)
           ___xxtofl (ARG)
         ___flmul (ARG)
           __Umul8_16
           ___xxtofl (ARG)
         ___xxtofl (ARG)
       ___xxtofl
     _runFood
       _rotation0
       _rotation90
   _broadcast_BT
   _control_BT
     _BT_load_string
       _BT_load_char
       _getStringData (ARG)
         ___awdiv
         ___awmod
     _broadcast_BT
     _fan_off
     _fan_on
     _print_status
       _BT_load_string
         _BT_load_char
         _getStringData (ARG)
           ___awdiv
           ___awmod
       _broadcast_BT
       _getStringData
         ___awdiv
         ___awmod
       _get_level_food
         _distance
           ___fldiv
             ___flmul (ARG)
               __Umul8_16
               ___xxtofl (ARG)
             ___xxtofl (ARG)
           ___flmul
             __Umul8_16
             ___xxtofl (ARG)
           ___fltol
             ___fldiv (ARG)
               ___flmul (ARG)
                 __Umul8_16
                 ___xxtofl (ARG)
               ___xxtofl (ARG)
             ___flmul (ARG)
               __Umul8_16
               ___xxtofl (ARG)
             ___xxtofl (ARG)
           ___xxtofl
     _runFood
       _rotation0
       _rotation90
   _humi_warning
     _BT_load_string
       _BT_load_char
       _getStringData (ARG)
         ___awdiv
         ___awmod
     _broadcast_BT
   _init_fan
   _print_Temp_Humi_LCD
     _LCD_Clear
       _LCD_SendCommand
         _LCD_Send4Bit
     _LCD_Gotoxy
       _LCD_SendCommand
         _LCD_Send4Bit
     _LCD_PutChar
       _LCD_SendCommand
         _LCD_Send4Bit
     _LCD_PutString
       _LCD_PutChar
         _LCD_SendCommand
           _LCD_Send4Bit
     ___awdiv
     ___awmod
     _checkTemp
       _fan_on
   _print_option_BT
     _BT_load_string
       _BT_load_char
       _getStringData (ARG)
         ___awdiv
         ___awmod
     _broadcast_BT
   _print_status
     _BT_load_string
       _BT_load_char
       _getStringData (ARG)
         ___awdiv
         ___awmod
     _broadcast_BT
     _getStringData
       ___awdiv
       ___awmod
     _get_level_food
       _distance
         ___fldiv
           ___flmul (ARG)
             __Umul8_16
             ___xxtofl (ARG)
           ___xxtofl (ARG)
         ___flmul
           __Umul8_16
           ___xxtofl (ARG)
         ___fltol
           ___fldiv (ARG)
             ___flmul (ARG)
               __Umul8_16
               ___xxtofl (ARG)
             ___xxtofl (ARG)
           ___flmul (ARG)
             __Umul8_16
             ___xxtofl (ARG)
           ___xxtofl (ARG)
         ___xxtofl
   _temp_warning
     _BT_load_string
       _BT_load_char
       _getStringData (ARG)
         ___awdiv
         ___awmod
     _broadcast_BT
   _water_init
   _water_start

 Address spaces:
Name               Size   Autos  Total    Cost      Usage
BITCOMMON            E      0       0       0        0.0%
EEDATA             100      0       0       0        0.0%
NULL                 0      0       0       0        0.0%
CODE                 0      0       0       0        0.0%
COMMON               E      E       E       1      100.0%
BITSFR0              0      0       0       1        0.0%
SFR0                 0      0       0       1        0.0%
BITSFR1              0      0       0       2        0.0%
SFR1                 0      0       0       2        0.0%
STACK                0      0       0       2        0.0%
ABS                  0      0      69       3        0.0%
BITBANK0            50      0       0       4        0.0%
BITSFR3              0      0       0       4        0.0%
SFR3                 0      0       0       4        0.0%
BANK0               50     4D      4F       5       98.8%
BITSFR2              0      0       0       5        0.0%
SFR2                 0      0       0       5        0.0%
BITBANK1            50      0       0       6        0.0%
BANK1               50      0       C       7       15.0%
BITBANK3            60      0       0       8        0.0%
BANK3               60      0       0       9        0.0%
BITBANK2            60      0       0      10        0.0%
BANK2               60      0       0      11        0.0%
DATA                 0      0      69      12        0.0%


Microchip Technology PIC Macro Assembler V2.30 build 20200825195618 
Symbol Table                                                                                   Tue Jun 01 00:47:27 2021

                ___fldiv@aexp 0053                  ___fldiv@bexp 0052                             pc 0002  
                ___fldiv@sign 004B                   ?_LCD_Gotoxy 0074                  ___awdiv@sign 0076  
                          fsr 0004           __Umul8_16@word_mpld 0076           _print_Temp_Humi_LCD 0F5A  
                         l211 16CE                           l203 16D8                           l220 177E  
                         l142 0DD3                           l214 16C5                           l206 16E1  
                         l135 0AEC                           l151 0E42                           l223 16F6  
                         l311 0B23                           l208 16E2                           l241 172B  
                         l217 16C1                           l161 0C94                           l305 0B5A  
                         l250 0051                           l146 0E01                           l226 16FA  
                         l243 172F                           l171 0061                           l235 17FF  
                         l180 0A6E                           l253 174C                           l173 0065  
                         l229 1700                           l246 1736                           l174 0066  
                         l182 0A94                           l190 1764                           l238 1722  
                         l318 0DD0                           l158 0B94                           l256 0CF8  
                         l600 0EBE                           l176 006A                           l168 0FFF  
                         l177 0104                           l185 0A97                           l273 17B4  
                         l265 0A44                           l194 1798                           l187 0ABE  
                         l259 16F0                           l268 1710                           l198 17D9  
                         l286 0BDB                           l570 0C34                           l299 02AB  
                         l812 0A59                           l805 07DD                           l557 0D5F  
                         l814 0A6B                           l590 0EBE                           l753 0308  
                         l850 0188                           l755 0488                           l851 0194  
                         l843 016C                           l597 0EA9                           l837 0127  
                         l775 046C                           l839 01BE                           l777 047C  
                         l769 03FA                           l793 07E9                           l799 0755  
                         _GIE 005F                           _RB0 0030                           _RB1 0031  
                         _RB2 0032                           _RB3 0033                           _RC2 003A  
                         _RB4 0034                           _RD0 0040                           _RC3 003B  
                         _RB5 0035                           _RD1 0041                           _RB6 0036  
                         _RB7 0037                           _RD4 0044                           _RD5 0045  
                         _RD6 0046                           _RD7 0047                           _RX9 00C6  
                         _TX9 04C6                  ?_LCD_PutChar 0070              ?_print_option_BT 0070  
                         fsr0 0004                           indf 0000                  ___awmod@sign 0076  
                ___flmul@aexp 0032                  ___flmul@bexp 0033                 ?_LCD_Send4Bit 0070  
                ___flmul@sign 002D                  ___flmul@temp 0038                  ___flmul@prod 0034  
                ___fltol@exp1 005E                          l2000 032E                          l2010 0359  
                        l2020 037E                          l2012 0361                          l2004 0337  
                        l2100 049B                          l2030 03A9                          l2022 037F  
                        l2014 0363                          l2006 0349                          l2110 04B7  
                        l2102 04A0                          l2040 03C6                          l2016 0368  
                        l2024 0388                          l2032 03AD                          l2008 0351  
                        l2200 075A                          l2120 04CC                          l2112 04BC  
                        l2104 04A5                          l2050 03DE                          l2042 03CA  
                        l2034 03B3                          l2026 039A                          l2018 037A  
                        l2202 075F                          l2210 0790                          l2130 04E8  
                        l2122 04D1                          l2114 04C2                          l2106 04AD  
                        l2060 03FF                          l2052 03DF                          l2044 03CB  
                        l2036 03BB                          l2028 039B                          l2220 07C3  
                        l2212 079D                          l2204 076D                          l2140 0513  
                        l2132 04ED                          l2124 04D9                          l2116 04C6  
                        l2108 04AF                          l2300 0CFA                          l2062 0404  
                        l2070 0435                          l2054 03E3                          l2046 03D4  
                        l2038 03BD                          l2222 07D1                          l2214 07A8  
                        l2206 0771                          l2150 05B0                          l2142 0530  
                        l2126 04DB                          l2118 04C7                          l2310 0D0E  
                        l2302 0CFE                          l2080 046B                          l2072 0442  
                        l2064 0412                          l2056 03F7                          l2048 03DA  
                        l2224 07D5                          l2216 07B7                          l2208 078A  
                        l2160 0613                          l2152 05B9                          l2144 054C  
                        l2136 04F6                          l2128 04E3                          l2240 012F  
                        l2232 0106                          l2320 0D24                          l2312 0D12  
                        l2304 0D03                          l2082 0472                          l2074 0450  
                        l2066 0416                          l2226 07D6                          l2218 07C1  
                        l2170 06B3                          l2162 062C                          l2154 05C9  
                        l2146 0578                          l2138 0506                          l2250 0151  
                        l2234 010B                          l2402 0A71                          l2330 0D44  
                        l2322 0D28                          l2314 0D14                          l2306 0D05  
                        l2084 0476                          l2076 045F                          l2068 042F  
                        l2228 07E1                          l2180 0721                          l2172 06D9  
                        l2164 0649                          l2156 05E6                          l2148 0594  
                        l2092 0489                          l2260 0182                          l2252 0155  
                        l2244 0138                          l2236 010F                          l2404 0A79  
                        l2412 0A9A                          l2332 0D4B                          l2324 0D2C  
                        l2316 0D1A                          l2308 0D09                          l2420 17C6  
                        l2500 01FF                          l2086 0478                          l2078 0463  
                        l2190 0739                          l2182 0725                          l2174 0701  
                        l2166 0676                          l2158 05F6                          l2094 0490  
                        l2270 01B5                          l2262 018C                          l2254 0163  
                        l2246 013D                          l2238 011F                          l2414 0AA3  
                        l2406 0A95                          l2326 0D3D                          l2318 0D1D  
                        l2334 0D51                          l2350 0BE8                          l2342 0BDC  
                        l2430 17D0                          l2510 022F                          l2502 020D  
                        l2192 073A                          l2184 0726                          l2176 070A  
                        l2168 0686                          l2096 0496                          l2272 01B6  
                        l2264 0196                          l2256 0173                          l2248 014A  
                        l2280 0057                          l2440 17DA                          l2336 0D56  
                        l2328 0D43                          l2360 0C01                          l2352 0BEC  
                        l2344 0BDD                          l2432 17D6                          l2424 17C8  
                        l2416 17B5                          l2520 0256                          l2512 0234  
                        l2504 0216                          l2194 073E                          l2186 072F  
                        l2178 0718                          l2098 049A                          l2266 01AC  
                        l2258 017E                          l2290 00FC                          l2282 005E  
                        l2442 17DB                          l2338 0D5B                          l2370 0C20  
                        l2362 0C05                          l2354 0BF1                          l2346 0BE1  
                        l2426 17CE                          l2418 17C0                          l2530 0283  
                        l2522 025B                          l2514 023D                          l2506 021C  
                        l2450 0B5B                          l2610 0FAE                          l2540 0ABF  
                        l2700 0CE0                          l2196 0752                          l2188 0735  
                        l2268 01B1                          l2284 006B                          l2276 0052  
                        l2380 16C2                          l2444 17E9                          l2364 0C09  
                        l2356 0BF7                          l2372 0C26                          l2348 0BE6  
                        l2436 17D8                          l2524 0265                          l2532 028D  
                        l2516 0243                          l2508 0226                          l2460 0B8F  
                        l2452 0B6A                          l2620 0FC2                          l2612 0FB5  
                        l2604 0F71                          l2550 0ADE                          l2542 0AC5  
                        l1910 0049                          l1902 0004                          l2702 0CE6  
                        l2286 006F                          l2278 0056                          l2294 16F2  
                        l2446 17EF                          l2374 0C2B                          l2366 0C13  
                        l2358 0BFA                          l2382 0C38                          l2526 026F  
                        l2534 02A6                          l2518 024D                          l2462 1701  
                        l2390 16E4                          l2470 0A2E                          l2454 0B6E  
                        l2622 0FF7                          l2614 0FBE                          l2606 0FA6  
                        l2710 0B9E                          l2630 16CF                          l2552 0AE2  
                        l2544 0ACD                          l2640 176A                          l1912 004C  
                        l1904 000E                          l2296 1738                          l2704 0CEC  
                        l1920 0E59                          l2288 00C1                          l2448 1711  
                        l2376 0C30                          l2368 0C19                          l2384 0C92  
                        l2528 0279                          l2464 1707                          l2480 17AA  
                        l2392 16E7                          l2472 0A34                          l2456 0B7D  
                        l2624 0FF9                          l2608 0FA8                          l2720 0BCD  
                        l2712 0BA3                          l2632 16D9                          l2800 0ECF  
                        l2554 0AE8                          l2546 0AD0                          l2650 1774  
                        l2642 176C                          l1906 0044                          l2706 0CF2  
                        l2570 0DD9                          l1930 0E7D                          l1922 0E6E  
                        l1914 0E43                          l2626 177F                          l2490 16BE  
                        l2298 0CF9                          l2386 0C93                          l2730 0D79  
                        l2722 0D60                          l2482 17B0                          l2474 179A  
                        l2394 16ED                          l2466 0A1F                          l2458 0B80  
                        l2714 0BB1                          l2634 16DF                          l2810 0EE0  
                        l2802 0ED0                          l2548 0AD8                          l2660 177D  
                        l2652 1775                          l2644 176D                          l1908 0045  
                        l2580 0E22                          l2572 0DDD                          l2564 0DD2  
                        l1924 0E6F                          l1916 0E50                          l2396 0A6C  
                        l2484 174D                          l2628 1793                          l2492 01BF  
                        l2740 0D99                          l2732 0D7E                          l2724 0D69  
                        l2636 16C6                          l2476 179F                          l2468 0A20  
                        l2716 0BBA                          l2708 0B95                          l2820 0EFD  
                        l2812 0EE5                          l2804 0ED3                          l2662 1723  
                        l2654 1778                          l2646 1770                          l2638 1765  
                        l2582 0E28                          l2574 0DE3                          l2558 0DD1  
                        l1950 02AC                          l1926 0E77                          l2486 1752  
                        l2494 01E1                          l2750 0DB9                          l2742 0D9E  
                        l2734 0D82                          l2726 0D6E                          l2478 17A5  
                        l2718 0BC8                          l2830 0F2E                          l2822 0F02  
                        l2814 0EEE                          l2806 0ED8                          l2664 1729  
                        l2656 1779                          l2648 1771                          l2680 0C98  
                        l2584 0E2C                          l2576 0E06                          l1960 02C3  
                        l1952 02B3                          l1944 0E9E                          l1936 0E85  
                        l1928 0E79                          l2488 175F                          l2496 01E6  
                        l2752 0DBE                          l2744 0DA2                          l2736 0D8B  
                        l2728 0D72                          l2592 0F5A                          l2760 0B2C  
                        l2840 0F47                          l2832 0F33                          l2824 0F07  
                        l2816 0EF3                          l2808 0EDD                          l2674 1735  
                        l2658 177A                          l2690 0CB9                          l2682 0C9B  
                        l2586 0E32                          l2578 0E1E                          l1970 02DB  
                        l1962 02C8                          l1954 02B9                          l1890 0A48  
                        l1946 0EAE                          l1938 0E97                          l2498 01EF  
                        l2754 0DC2                          l2746 0DAB                          l2738 0D90  
                        l2594 0F5F                          l2762 0B35                          l2842 0F4C  
                        l2834 0F38                          l2826 0F0C                          l2818 0EF8  
                        l2668 1733                          l2692 0CC2                          l2684 0CA4  
                        l1980 02F0                          l1972 02E0                          l1964 02D0  
                        l1956 02BD                          l1892 0A4F                          l1948 0EB3  
                        l2756 0DCB                          l2748 0DB0                          l2780 0B03  
                        l2596 0F64                          l2764 0B3A                          l2844 0F51  
                        l2836 0F3D                          l2828 0F1B                          l2694 0CC8  
                        l2686 0CAA                          l2678 0C95                          l1990 0310  
                        l1982 02F5                          l1974 02E6                          l1966 02D1  
                        l1958 02BE                          l1894 0A53                          l2782 0B13  
                        l2774 0AED                          l2598 0F6D                          l2766 0B4A  
                        l2758 0B24                          l2838 0F42                          l2790 0EBF  
                        l2696 0CD1                          l2688 0CB3                          l1992 031C  
                        l1984 02FD                          l1976 02EA                          l1968 02D3  
                        l1896 0A62                          l1888 0A46                          l2784 0B19  
                        l2776 0AF5                          l2768 0B50                          l2792 0EC2  
                        l2698 0CD7                          l1994 0320                          l1986 02FE  
                        l1978 02EB                          l1898 0A67                          l2866 029B  
                        l2778 0AFE                          l2794 0EC7                          l1988 0300  
                        l2796 0ECB                          l1998 0329                          l2798 0ECE  
                        _DATA 00A0                          STR_1 09D8                          STR_2 09EF  
                        STR_3 092B                          STR_4 0800                          STR_5 08A1  
                        STR_6 09C9                          STR_7 0945                          STR_8 0957  
                        STR_9 08EC                          _BRGH 04C2                          _CREN 00C4  
                        u2010 039A                          u2011 0399                          u2100 03FE  
                        u2020 03B3                          u2101 03FD                          u2021 03B2  
                        u2005 0381                          u2110 0404                          u2030 03BB  
                        u2111 0403                          u2031 03BA                          u2015 0396  
                        u2120 0416                          u2200 04C6                          u3000 0B8F  
                        u2121 0415                          u2201 04C5                          u3001 0B8E  
                        u2130 0425                          u2050 03CA                          u2210 04CC  
                        u3010 0A44                          u2051 03C9                          u2211 04CB  
                        u3011 0A43                          u3100 0E28                          u2140 0442  
                        u2220 04D1                          u3020 179F                          u3101 0E27  
                        u2141 0441                          u2045 03BF                          u2301 05D8  
                        u2221 04D0                          u3021 179E                          u3005 0B8B  
                        u3110 0E32                          u2150 045F                          u2070 03DE  
                        u2302 05DF                          u2230 04E8                          u3030 021C  
                        u3111 0E31                          u2151 045E                          u2135 0420  
                        u2071 03DD                          u2311 0605                          u2303 05E6  
                        u2231 04E7                          u3031 021B                          u2160 0476  
                        u2080 03E3                          u2312 060C                          u2240 04ED  
                        u3040 0243                          u3200 0D79                          u3120 0FAE  
                        u2161 0475                          u2145 043E                          u2081 03E2  
                        u2065 03CD                          u2313 0613                          u2241 04EC  
                        u3041 0242                          u3201 0D78                          u3121 0FAD  
                        u3050 0ADE                          u2090 03F7                          u2170 049A  
                        u3210 0D99                          u3130 0FFF                          u3051 0ADD  
                        u2155 045B                          u2091 03F6                          u2331 063B  
                        u2251 053E                          u2171 0499                          u3211 0D98  
                        u3131 0FFE                          u3060 0AE8                          u1700 001D  
                        u2500 0780                          u2420 0725                          u2332 0642  
                        u2252 0545                          u2180 04A0                          u3140 1793  
                        u3220 0DB9                          u3061 0AE7                          u1701 0019  
                        u2421 0724                          u2405 0703                          u2341 0668  
                        u2333 0649                          u2325 0615                          u2261 055A  
                        u2253 054C                          u2181 049F                          u3141 1792  
                        u3221 0DB8                          u3070 0DD9                          u2510 079D  
                        u2342 066F                          u2262 0561                          u2190 04A5  
                        u3230 0B2C                          u3150 16DF                          u3071 0DD8  
                        u2511 079C                          u2415 071A                          u2351 0695  
                        u2343 0676                          u2271 0586                          u2263 0568  
                        u2191 04A4                          u3231 0B2B                          u3151 16DE  
                        u3160 1729                          u3080 0DE3                          u1640 0A53  
                        u2520 07B7                          u2440 0739                          u2360 06BF  
                        u2352 069C                          u2272 058D                          u1800 0E7D  
                        u2600 0172                          u3240 0B50                          u3161 1728  
                        u3081 0DE2                          u1641 0A52                          u2521 07B6  
                        u2505 077B                          u2441 0738                          u2353 06A3  
                        u2281 05A2                          u2273 0594                          u1801 0E7C  
                        u2601 0171                          u3145 178F                          u3241 0B4F  
                        u3170 172F                          u1730 002F                          u1714 0020  
                        u3090 0E05                          u2530 07D5                          u2450 073E  
                        u2282 05A9                          u1810 0E84                          u3250 0AF5  
                        u3171 172E                          u1731 002B                          u3091 0E04  
                        u2531 07D4                          u2515 0799                          u2451 073D  
                        u2435 0728                          u2371 06CB                          u2283 05B0  
                        u1811 0E83                          u3251 0AF4                          u3307 170B  
                        u3180 1733                          u1900 02C8                          u1660 0A67  
                        u2460 0752                          u2380 06E7                          u2372 06D2  
                        u2620 0182                          u2540 010B                          u2700 16FA  
                        u3260 0B19                          u3181 1732                          u1725 0023  
                        u1901 02C7                          u1661 0A66                          u2525 07B3  
                        u2461 0751                          u2373 06D9                          u2365 06BA  
                        u2621 0181                          u2541 010A                          u2701 16F9  
                        u3261 0B18                          u3317 0B0B                          u1670 000B  
                        u1910 02EA                          u2470 0759                          u1830 0E96  
                        u2630 0188                          u2550 010F                          u2710 1700  
                        u3190 0D69                          u1671 0007                          u3407 0C9F  
                        u1911 02E9                          u1655 0A5A                          u2471 0758  
                        u2391 06F3                          u2295 05B2                          u1831 0E95  
                        u2631 0187                          u2615 0177                          u2551 010E  
                        u2711 16FF                          u3327 171B                          u3191 0D68  
                        u1760 0041                          u1744 0032                          u1920 02F0  
                        u2480 075F                          u2392 06FA                          u1840 0E9D  
                        u2640 018C                          u2560 012F                          u1761 003D  
                        u3417 0CAE                          u1921 02EF                          u2481 075E  
                        u2393 0701                          u2385 06E2                          u1841 0E9C  
                        u1825 0E86                          u2641 018B                          u2561 012E  
                        u3337 1758                          u1930 02F5                          u2490 0771  
                        u2650 01A1                          u2810 0D51                          u2730 0CFE  
                        u3507 0AEA                          u1755 0035                          u3427 0CBD  
                        u1931 02F4                          u2491 0770                          u3347 0A9E  
                        u2811 0D50                          u2731 0CFD                          u1684 000E  
                        u1940 0310                          u1860 0EAE                          u1780 0E50  
                        u2660 01B1                          u2580 0150                          u2820 0D56  
                        u2740 0D09                          u2900 0C26                          u2725 173B  
                        u3437 0CCC                          u1941 030F                          u1861 0EAD  
                        u1781 0E4F                          u2661 01B0                          u2581 014F  
                        u3357 0AAA                          u2821 0D55                          u2805 0D45  
                        u2741 0D08                          u2901 0C25                          u3277 0F14  
                        u1774 0044                          u1950 032E                          u1870 0EB3  
                        u1790 0E67                          u2670 01B5                          u2750 0D1A  
                        u2910 0C2B                          u2830 0BE1                          u1695 0011  
                        u3447 0CDB                          u1951 032D                          u1871 0EB2  
                        u1855 0EA0                          u2671 01B4                          u2655 019C  
                        u2575 0142                          u3367 0A75                          u2751 0D19  
                        u2911 0C2A                          u2831 0BE0                          u3287 0B42  
                        u1960 0368                          u1880 02BD                          u2680 0065  
                        u2920 0A94                          u2840 0BEC                          u3457 0047  
                        u1961 0367                          u1881 02BC                          u2681 0064  
                        u2921 0A93                          u3377 0A80                          u2841 0BEB  
                        u3297 17B2                          u1890 02C3                          u2690 006A  
                        u2930 0ABE                          u2770 0D2C                          u2850 0BF7  
                        u3467 004E                          u1891 02C2                          u1795 0E62  
                        u2595 0164                          u2691 0069                          u3387 005B  
                        u2931 0ABD                          u2771 0D2B                          u2851 0BF6  
                        _PEIE 005E                          u2940 17C6                          u3477 0AC9  
                        u3397 0DDB                          u2765 0D1E                          u2941 17C5  
                        u1990 037E                          u2790 0D3D                          u2870 0C09  
                        u2950 17CE                          u3487 0AD5                          u1991 037D  
                        u1975 036A                          u2791 0D3C                          u2871 0C08  
                        u2951 17CD                          u2880 0C13                          u2960 17D6  
                        u3497 0AE0                          u1985 0373                          u2785 0D2D  
                        u2881 0C12                          u2865 0BFB                          u2961 17D5  
                        u2970 17FF                          u2971 17FE                          u2795 0D39  
                        _RCIE 0465                          u2980 0B6A                          _RCIF 0065  
                        u2885 0C0F                          u2981 0B69                          u2990 0B7D  
                        u2895 0C1A                          u2991 0B7C                          u2985 0B66  
                        u2995 0B79                          _OERR 00C1                          _SPEN 00C7  
               _LCD_PutString 0A1F                          _TRMT 04C1                          _TXIE 0464  
                        _TXEN 04C5                          _TXIF 0064                          _SYNC 04C4  
              ??_broadcast_BT 0070          ?_print_Temp_Humi_LCD 0070                          _main 0EBF  
          __size_of_LCD_Clear 0010                          _temp 006E                          btemp 007E  
                        start 0000               _LCD_SendCommand 1737               ___fldiv@new_exp 004C  
             ??_getStringData 0079          __size_of_DHT11_start 002E              __end_of_LCD_Init 0CF9  
                 Read_DTH11@i 0077                 ___fltol@sign1 005D                         ?_main 0070  
             __end_of___fldiv 0489               __end_of___awdiv 0D60                         STR_10 0A0D  
                       STR_11 090D                         STR_12 0A17                         STR_20 09F8  
                       STR_21 09FF                         STR_13 0969                         STR_14 0A1A  
                       STR_22 09E4                         STR_30 09AA                         STR_15 0A13  
                       STR_23 0A06                         STR_16 09BA                         STR_24 0853  
                       STR_17 0A1A                         STR_25 082A                         STR_18 0A13  
                       STR_26 08C7                         STR_19 097A                         STR_27 087B  
                       STR_28 098A               __end_of___awmod 0C35                         STR_29 099A  
             __end_of___flmul 07EA               __end_of___fltol 0EBF               ___awdiv@divisor 0070  
                       _T1CON 0010               ___awdiv@counter 0075                         _RCREG 001A  
                       _TMR1H 000F                         _TMR1L 000E                         _SPBRG 0099  
                       _TRISD 0088                         _TXREG 0019               __end_of_fan_off 16C2  
              ??_LCD_Send4Bit 0070                ?_LCD_PutString 0075                         pclath 000A  
         __size_of_LCD_Gotoxy 001C         ??_print_Temp_Humi_LCD 0079               __end_of_runFood 1765  
                       status 0003                         wtemp0 007E                    _Read_DTH11 0DD1  
              _Init_Bluetooth 1765               __initialization 07EA                  __end_of_main 0F5A  
                ?_BT_get_char 0070                        ??_main 006A             __end_of_LCD_Clear 1711  
                Read_DTH11@ii 0076              getStringData@num 0022              ___awdiv@dividend 0072  
     __end_of_LCD_SendCommand 174D                _BT_load_string 17DA                        _TMR1ON 0080  
                      _TRISB0 0430                        _TRISB1 0431                        _TRISB2 0432  
                      _TRISB3 0433                        _TRISB4 0434                        _TRISC2 043A  
                      _TRISB5 0435                        _TRISC3 043B                        _TRISB6 0436  
                      _TRISB7 0437                        _TRISC6 043E                        _TRISC7 043F  
            __end_of___xxtofl 01BF        __end_of_Init_Bluetooth 177F              __end_of_distance 0105  
                   ??___fldiv 0042                     ??___awdiv 0074                     ??___awmod 0074  
                   ??___flmul 0028                     ??___fltol 0058                        _fan_on 16C2  
            __end_of_init_fan 16CF              ___awdiv@quotient 0077                     ??_fan_off 0070  
             ___awmod@divisor 0070               ___awmod@counter 0075          __end_of_broadcast_BT 1723  
          __size_of__Umul8_16 0027          __size_of_LCD_PutChar 000E               ??_LCD_PutString 0077  
                   ??_runFood 0074              ??_get_level_food 0066        __end_of_BT_load_string 1800  
                ___xxtofl@arg 007A                  ___xxtofl@exp 0079                  ___xxtofl@val 0070  
     __end_of__initialization 07FC                     ?_LCD_Init 0070                  ?_water_start 0070  
             ?_Init_Bluetooth 0070                    ___fltol@f1 0054                   ?_Read_DTH11 0070  
        __end_of_LCD_Send4Bit 0052                __pcstackCOMMON 0070                 ?_humi_warning 0070  
          __size_of_checkTemp 003A                  ??_LCD_Gotoxy 0075                 LCD_Send4Bit@a 0071  
               LCD_Gotoxy@col 0074                 LCD_Gotoxy@row 0076               ?_BT_load_string 007C  
                  __pbssBANK0 006D                    __pbssBANK1 00A0              ?_LCD_SendCommand 0070  
          __size_of_auto_food 001A            __end_of_LCD_Gotoxy 17B5                    ??_LCD_Init 0074  
               ?_BT_load_char 0070             __end_of__Umul8_16 0A6C                ??_humi_warning 0023  
                  __pmaintext 0EBF             getStringData@buff 0020               LCD_PutChar@data 0074  
    print_Temp_Humi_LCD@i_142 007B                       ?_fan_on 0070          __size_of_BT_get_char 0014  
                   ?___xxtofl 0070           __size_of_Read_DTH11 0072            __size_of_rotation0 0029  
           __end_of_checkTemp 0B95                     ?_distance 005F                    __stringtab 1000  
    __size_of_print_option_BT 0047                     ?_init_fan 0070                ??_BT_load_char 0070  
                  _control_BT 0D60                 ??_DHT11_start 0070         __end_of_getStringData 0C95  
       __size_of_broadcast_BT 0012                       ___fldiv 02AC                       ___awdiv 0CF9  
                     ___awmod 0BDC                       ___flmul 0489                       ___fltol 0E43  
             __size_of_fan_on 0004                       _fan_off 16BE             __end_of_auto_food 1799  
                     __ptext1 16D9                       __ptext2 16CF                       __ptext3 0B24  
                     __ptext4 0B95                       __ptext5 0F5A                       __ptext6 0B5B  
                     __ptext7 0A1F                       __ptext8 16E3                       __ptext9 1799  
                  ??___xxtofl 0074              ___awmod@dividend 0072   __end_of_print_Temp_Humi_LCD 1000  
               ?_temp_warning 0070                     _LCD_Clear 1701                       _runFood 174D  
                  ??_distance 0061          end_of_initialization 07FC                    ??_init_fan 0070  
       __size_of_LCD_Send4Bit 004F                  _broadcast_BT 1711          __size_of_water_start 000A  
           __end_of_rotation0 0A95                  __pstringtext 0800           __end_of_DHT11_start 0AED  
                  _water_init 16CF                ??_temp_warning 0023                 ___xxtofl@sign 0078  
                  ?_LCD_Clear 0070          __end_of_humi_warning 0B24              BT_load_char@byte 0070  
                _LCD_Send4Bit 0003                   ___fldiv@grs 004E                   ___fldiv@rem 0047  
               ?_print_status 0070                    _rotation90 0A95              ??_Init_Bluetooth 0070  
                 ___flmul@grs 002E                   ?_control_BT 0070            distance@time_taken 0064  
             get_level_food@d 0067                  ??_Read_DTH11 0070             __size_of_LCD_Init 0064  
           ??_print_option_BT 007E                __end_of_fan_on 16C6                 ??_LCD_PutChar 0074  
        __end_of_BT_load_char 1701              ??_BT_load_string 007E           start_initialization 07EA  
              ??_print_status 0068            __end_of_Read_DTH11 0E43         __end_of_LCD_PutString 0A45  
                 rotation90@i 0072                   _DHT11_start 0ABF              distance@distance 0062  
                    ??_fan_on 0070                     __Umul8_16 0A45           __size_of_control_BT 0071  
                 ?_water_init 0070                     ___fldiv@a 003A                     ___fldiv@b 003E  
                   ___flmul@a 0024                     ___flmul@b 0020                     ___latbits 0002  
               __pcstackBANK0 0020             LCD_Gotoxy@address 0077                   ??_LCD_Clear 0074  
           __size_of___xxtofl 00BA                   ?_rotation90 0070           __end_of_LCD_PutChar 16F1  
        print_Temp_Humi_LCD@i 007A             __size_of_distance 00B3                     _checkTemp 0B5B  
           __size_of_init_fan 0009       __size_of_get_level_food 0025      __size_of_LCD_SendCommand 0016  
        __end_of_temp_warning 0B5B                      ?___fldiv 003A                      ?___awdiv 0070  
                    ?___awmod 0070                      ?___flmul 0020                      ?___fltol 0054  
                  ?__Umul8_16 0070                 ??_BT_get_char 0070                      ?_fan_off 0070  
                   __pstrings 1000         __size_of_humi_warning 0037                     _auto_food 177F  
                    ?_runFood 0070                      _LCD_Init 0C95                    ?_checkTemp 0070  
              LCD_PutString@s 0075           __size_of_water_init 000A        LCD_SendCommand@command 0073  
                _humi_warning 0AED          __end_of_print_status 02AC         __size_of_BT_load_char 0010  
         __size_of_rotation90 002A                   __stringbase 1012                     _rotation0 0A6C  
                 _LCD_PutChar 16E3                    ?_auto_food 0070           __end_of_BT_get_char 1737  
             _print_option_BT 0B95        __size_of_getStringData 0060                 ??_water_start 0070  
                ??_control_BT 007E  __size_of_print_Temp_Humi_LCD 00A6                  _BT_load_char 16F1  
                  rotation0@i 0072                 _value_control 00AA                   ??__Umul8_16 0072  
            __size_of___fldiv 01DD              __size_of___awdiv 0067              __size_of___awmod 0059  
            __size_of___flmul 0361              __size_of___fltol 007C             ??_LCD_SendCommand 0072  
          __end_of__stringtab 1012                    ?_rotation0 0070              __size_of_fan_off 0004  
          __end_of_control_BT 0DD1                      ___xxtofl 0105                      __ptext10 1701  
                    __ptext11 16C6                      __ptext20 17DA                      __ptext12 0AED  
                    __ptext21 16F1                      __ptext13 0D60                      __ptext30 0E43  
                    __ptext22 16C2                      __ptext14 01BF                      __ptext31 0489  
                    __ptext23 16BE                      __ptext15 17B5                      __ptext40 1723  
                    __ptext32 0A45                      __ptext24 177F                      __ptext16 0C35  
                    __ptext33 02AC                      __ptext25 174D                      __ptext17 0BDC  
                    __ptext34 0DD1                      __ptext26 0A95                      __ptext18 0CF9  
                    __ptext35 0C95                      __ptext27 0A6C                      __ptext19 1711  
                    __ptext36 1737                      __ptext28 0052                      __ptext37 0003  
                    __ptext29 0105                      __ptext38 1765                      __ptext39 0ABF  
            __size_of_runFood 0018                      _distance 0052                      _init_fan 16C6  
       __size_of_temp_warning 0037                 __size_of_main 009B                   ??_checkTemp 0070  
                    _humidity 006D                _get_level_food 17B5                  ?_DHT11_start 0070  
         __end_of_water_start 16E3                 _getStringData 0C35                    _LCD_Gotoxy 1799  
                 _BT_get_char 1723          BT_load_string@string 007C                  ??_water_init 0070  
     __end_of_print_option_BT 0BDC                   ??_auto_food 007E                  _temp_warning 0B24  
                ??_rotation90 0070        __end_of_get_level_food 17DA         __size_of_print_status 00ED  
                   stringcode 100A            __end_of_water_init 16D9       __size_of_Init_Bluetooth 001A  
              ?_getStringData 0070            __end_of_rotation90 0ABF        __size_of_LCD_PutString 0026  
                 ??_rotation0 0070        __Umul8_16@multiplicand 0070                      stringtab 1000  
                _print_status 01BF       __size_of_BT_load_string 0026                 ?_broadcast_BT 0070  
             ?_get_level_food 0070                   _water_start 16D9          __Umul8_16@multiplier 0078  
           __Umul8_16@product 0074  
